ARM GAS  /tmp/ccRsISvi.s 			page 1


   1              		.syntax unified
   2              		.cpu cortex-m3
   3              		.fpu softvfp
   4              		.eabi_attribute 20, 1
   5              		.eabi_attribute 21, 1
   6              		.eabi_attribute 23, 3
   7              		.eabi_attribute 24, 1
   8              		.eabi_attribute 25, 1
   9              		.eabi_attribute 26, 1
  10              		.eabi_attribute 30, 1
  11              		.eabi_attribute 34, 1
  12              		.eabi_attribute 18, 4
  13              		.thumb
  14              		.file	"stm32f1xx_hal_can.c"
  15              		.text
  16              	.Ltext0:
  17              		.cfi_sections	.debug_frame
  18              		.section	.text.HAL_CAN_ConfigFilter,"ax",%progbits
  19              		.align	2
  20              		.global	HAL_CAN_ConfigFilter
  21              		.thumb
  22              		.thumb_func
  24              	HAL_CAN_ConfigFilter:
  25              	.LFB64:
  26              		.file 1 "Drivers/STM32F1xx_HAL_Driver/Src/stm32f1xx_hal_can.c"
   1:Drivers/STM32F1xx_HAL_Driver/Src/stm32f1xx_hal_can.c **** /**
   2:Drivers/STM32F1xx_HAL_Driver/Src/stm32f1xx_hal_can.c ****   ******************************************************************************
   3:Drivers/STM32F1xx_HAL_Driver/Src/stm32f1xx_hal_can.c ****   * @file    stm32f1xx_hal_can.c
   4:Drivers/STM32F1xx_HAL_Driver/Src/stm32f1xx_hal_can.c ****   * @author  MCD Application Team
   5:Drivers/STM32F1xx_HAL_Driver/Src/stm32f1xx_hal_can.c ****   * @brief   CAN HAL module driver.
   6:Drivers/STM32F1xx_HAL_Driver/Src/stm32f1xx_hal_can.c ****   *          This file provides firmware functions to manage the following 
   7:Drivers/STM32F1xx_HAL_Driver/Src/stm32f1xx_hal_can.c ****   *          functionalities of the Controller Area Network (CAN) peripheral:           
   8:Drivers/STM32F1xx_HAL_Driver/Src/stm32f1xx_hal_can.c ****   *           + Initialization and de-initialization functions 
   9:Drivers/STM32F1xx_HAL_Driver/Src/stm32f1xx_hal_can.c ****   *           + IO operation functions
  10:Drivers/STM32F1xx_HAL_Driver/Src/stm32f1xx_hal_can.c ****   *           + Peripheral Control functions
  11:Drivers/STM32F1xx_HAL_Driver/Src/stm32f1xx_hal_can.c ****   *           + Peripheral State and Error functions
  12:Drivers/STM32F1xx_HAL_Driver/Src/stm32f1xx_hal_can.c ****   *
  13:Drivers/STM32F1xx_HAL_Driver/Src/stm32f1xx_hal_can.c ****   @verbatim
  14:Drivers/STM32F1xx_HAL_Driver/Src/stm32f1xx_hal_can.c ****   ==============================================================================
  15:Drivers/STM32F1xx_HAL_Driver/Src/stm32f1xx_hal_can.c ****                         ##### How to use this driver #####
  16:Drivers/STM32F1xx_HAL_Driver/Src/stm32f1xx_hal_can.c ****   ==============================================================================
  17:Drivers/STM32F1xx_HAL_Driver/Src/stm32f1xx_hal_can.c ****     [..]            
  18:Drivers/STM32F1xx_HAL_Driver/Src/stm32f1xx_hal_can.c ****       (#) Enable the CAN controller interface clock using 
  19:Drivers/STM32F1xx_HAL_Driver/Src/stm32f1xx_hal_can.c ****           __HAL_RCC_CAN1_CLK_ENABLE() for CAN1 and __HAL_RCC_CAN2_CLK_ENABLE() for CAN2
  20:Drivers/STM32F1xx_HAL_Driver/Src/stm32f1xx_hal_can.c ****       -@- In case you are using CAN2 only, you have to enable the CAN1 clock.
  21:Drivers/STM32F1xx_HAL_Driver/Src/stm32f1xx_hal_can.c ****        
  22:Drivers/STM32F1xx_HAL_Driver/Src/stm32f1xx_hal_can.c ****       (#) CAN pins configuration
  23:Drivers/STM32F1xx_HAL_Driver/Src/stm32f1xx_hal_can.c ****         (++) Enable the clock for the CAN GPIOs using the following function:
  24:Drivers/STM32F1xx_HAL_Driver/Src/stm32f1xx_hal_can.c ****              __HAL_RCC_GPIOx_CLK_ENABLE();   
  25:Drivers/STM32F1xx_HAL_Driver/Src/stm32f1xx_hal_can.c ****         (++) Connect and configure the involved CAN pins using the 
  26:Drivers/STM32F1xx_HAL_Driver/Src/stm32f1xx_hal_can.c ****               following function HAL_GPIO_Init(); 
  27:Drivers/STM32F1xx_HAL_Driver/Src/stm32f1xx_hal_can.c ****               
  28:Drivers/STM32F1xx_HAL_Driver/Src/stm32f1xx_hal_can.c ****       (#) Initialize and configure the CAN using HAL_CAN_Init() function.   
  29:Drivers/STM32F1xx_HAL_Driver/Src/stm32f1xx_hal_can.c ****                  
  30:Drivers/STM32F1xx_HAL_Driver/Src/stm32f1xx_hal_can.c ****       (#) Transmit the desired CAN frame using HAL_CAN_Transmit() function.
  31:Drivers/STM32F1xx_HAL_Driver/Src/stm32f1xx_hal_can.c **** 
  32:Drivers/STM32F1xx_HAL_Driver/Src/stm32f1xx_hal_can.c ****       (#) Or transmit the desired CAN frame using HAL_CAN_Transmit_IT() function.
ARM GAS  /tmp/ccRsISvi.s 			page 2


  33:Drivers/STM32F1xx_HAL_Driver/Src/stm32f1xx_hal_can.c ****            
  34:Drivers/STM32F1xx_HAL_Driver/Src/stm32f1xx_hal_can.c ****       (#) Receive a CAN frame using HAL_CAN_Receive() function.
  35:Drivers/STM32F1xx_HAL_Driver/Src/stm32f1xx_hal_can.c **** 
  36:Drivers/STM32F1xx_HAL_Driver/Src/stm32f1xx_hal_can.c ****       (#) Or receive a CAN frame using HAL_CAN_Receive_IT() function.
  37:Drivers/STM32F1xx_HAL_Driver/Src/stm32f1xx_hal_can.c **** 
  38:Drivers/STM32F1xx_HAL_Driver/Src/stm32f1xx_hal_can.c ****      *** Polling mode IO operation ***
  39:Drivers/STM32F1xx_HAL_Driver/Src/stm32f1xx_hal_can.c ****      =================================
  40:Drivers/STM32F1xx_HAL_Driver/Src/stm32f1xx_hal_can.c ****      [..]    
  41:Drivers/STM32F1xx_HAL_Driver/Src/stm32f1xx_hal_can.c ****        (+) Start the CAN peripheral transmission and wait the end of this operation 
  42:Drivers/STM32F1xx_HAL_Driver/Src/stm32f1xx_hal_can.c ****            using HAL_CAN_Transmit(), at this stage user can specify the value of timeout
  43:Drivers/STM32F1xx_HAL_Driver/Src/stm32f1xx_hal_can.c ****            according to his end application
  44:Drivers/STM32F1xx_HAL_Driver/Src/stm32f1xx_hal_can.c ****        (+) Start the CAN peripheral reception and wait the end of this operation 
  45:Drivers/STM32F1xx_HAL_Driver/Src/stm32f1xx_hal_can.c ****            using HAL_CAN_Receive(), at this stage user can specify the value of timeout
  46:Drivers/STM32F1xx_HAL_Driver/Src/stm32f1xx_hal_can.c ****            according to his end application 
  47:Drivers/STM32F1xx_HAL_Driver/Src/stm32f1xx_hal_can.c ****        
  48:Drivers/STM32F1xx_HAL_Driver/Src/stm32f1xx_hal_can.c ****      *** Interrupt mode IO operation ***    
  49:Drivers/STM32F1xx_HAL_Driver/Src/stm32f1xx_hal_can.c ****      ===================================
  50:Drivers/STM32F1xx_HAL_Driver/Src/stm32f1xx_hal_can.c ****      [..]    
  51:Drivers/STM32F1xx_HAL_Driver/Src/stm32f1xx_hal_can.c ****        (+) Start the CAN peripheral transmission using HAL_CAN_Transmit_IT()
  52:Drivers/STM32F1xx_HAL_Driver/Src/stm32f1xx_hal_can.c ****        (+) Start the CAN peripheral reception using HAL_CAN_Receive_IT()         
  53:Drivers/STM32F1xx_HAL_Driver/Src/stm32f1xx_hal_can.c ****        (+) Use HAL_CAN_IRQHandler() called under the used CAN Interrupt subroutine
  54:Drivers/STM32F1xx_HAL_Driver/Src/stm32f1xx_hal_can.c ****        (+) At CAN end of transmission HAL_CAN_TxCpltCallback() function is executed and user can 
  55:Drivers/STM32F1xx_HAL_Driver/Src/stm32f1xx_hal_can.c ****             add his own code by customization of function pointer HAL_CAN_TxCpltCallback 
  56:Drivers/STM32F1xx_HAL_Driver/Src/stm32f1xx_hal_can.c ****        (+) In case of CAN Error, HAL_CAN_ErrorCallback() function is executed and user can 
  57:Drivers/STM32F1xx_HAL_Driver/Src/stm32f1xx_hal_can.c ****             add his own code by customization of function pointer HAL_CAN_ErrorCallback
  58:Drivers/STM32F1xx_HAL_Driver/Src/stm32f1xx_hal_can.c ****  
  59:Drivers/STM32F1xx_HAL_Driver/Src/stm32f1xx_hal_can.c ****      *** CAN HAL driver macros list ***
  60:Drivers/STM32F1xx_HAL_Driver/Src/stm32f1xx_hal_can.c ****      ============================================= 
  61:Drivers/STM32F1xx_HAL_Driver/Src/stm32f1xx_hal_can.c ****      [..]
  62:Drivers/STM32F1xx_HAL_Driver/Src/stm32f1xx_hal_can.c ****        Below the list of most used macros in CAN HAL driver.
  63:Drivers/STM32F1xx_HAL_Driver/Src/stm32f1xx_hal_can.c ****        
  64:Drivers/STM32F1xx_HAL_Driver/Src/stm32f1xx_hal_can.c ****       (+) __HAL_CAN_ENABLE_IT: Enable the specified CAN interrupts
  65:Drivers/STM32F1xx_HAL_Driver/Src/stm32f1xx_hal_can.c ****       (+) __HAL_CAN_DISABLE_IT: Disable the specified CAN interrupts
  66:Drivers/STM32F1xx_HAL_Driver/Src/stm32f1xx_hal_can.c ****       (+) __HAL_CAN_GET_IT_SOURCE: Check if the specified CAN interrupt source is enabled or disabl
  67:Drivers/STM32F1xx_HAL_Driver/Src/stm32f1xx_hal_can.c ****       (+) __HAL_CAN_CLEAR_FLAG: Clear the CAN's pending flags
  68:Drivers/STM32F1xx_HAL_Driver/Src/stm32f1xx_hal_can.c ****       (+) __HAL_CAN_GET_FLAG: Get the selected CAN's flag status
  69:Drivers/STM32F1xx_HAL_Driver/Src/stm32f1xx_hal_can.c ****       
  70:Drivers/STM32F1xx_HAL_Driver/Src/stm32f1xx_hal_can.c ****      [..] 
  71:Drivers/STM32F1xx_HAL_Driver/Src/stm32f1xx_hal_can.c ****       (@) You can refer to the CAN HAL driver header file for more useful macros 
  72:Drivers/STM32F1xx_HAL_Driver/Src/stm32f1xx_hal_can.c ****                 
  73:Drivers/STM32F1xx_HAL_Driver/Src/stm32f1xx_hal_can.c ****   @endverbatim
  74:Drivers/STM32F1xx_HAL_Driver/Src/stm32f1xx_hal_can.c ****            
  75:Drivers/STM32F1xx_HAL_Driver/Src/stm32f1xx_hal_can.c ****   ******************************************************************************
  76:Drivers/STM32F1xx_HAL_Driver/Src/stm32f1xx_hal_can.c ****   * @attention
  77:Drivers/STM32F1xx_HAL_Driver/Src/stm32f1xx_hal_can.c ****   *
  78:Drivers/STM32F1xx_HAL_Driver/Src/stm32f1xx_hal_can.c ****   * <h2><center>&copy; COPYRIGHT(c) 2017 STMicroelectronics</center></h2>
  79:Drivers/STM32F1xx_HAL_Driver/Src/stm32f1xx_hal_can.c ****   *
  80:Drivers/STM32F1xx_HAL_Driver/Src/stm32f1xx_hal_can.c ****   * Redistribution and use in source and binary forms, with or without modification,
  81:Drivers/STM32F1xx_HAL_Driver/Src/stm32f1xx_hal_can.c ****   * are permitted provided that the following conditions are met:
  82:Drivers/STM32F1xx_HAL_Driver/Src/stm32f1xx_hal_can.c ****   *   1. Redistributions of source code must retain the above copyright notice,
  83:Drivers/STM32F1xx_HAL_Driver/Src/stm32f1xx_hal_can.c ****   *      this list of conditions and the following disclaimer.
  84:Drivers/STM32F1xx_HAL_Driver/Src/stm32f1xx_hal_can.c ****   *   2. Redistributions in binary form must reproduce the above copyright notice,
  85:Drivers/STM32F1xx_HAL_Driver/Src/stm32f1xx_hal_can.c ****   *      this list of conditions and the following disclaimer in the documentation
  86:Drivers/STM32F1xx_HAL_Driver/Src/stm32f1xx_hal_can.c ****   *      and/or other materials provided with the distribution.
  87:Drivers/STM32F1xx_HAL_Driver/Src/stm32f1xx_hal_can.c ****   *   3. Neither the name of STMicroelectronics nor the names of its contributors
  88:Drivers/STM32F1xx_HAL_Driver/Src/stm32f1xx_hal_can.c ****   *      may be used to endorse or promote products derived from this software
  89:Drivers/STM32F1xx_HAL_Driver/Src/stm32f1xx_hal_can.c ****   *      without specific prior written permission.
ARM GAS  /tmp/ccRsISvi.s 			page 3


  90:Drivers/STM32F1xx_HAL_Driver/Src/stm32f1xx_hal_can.c ****   *
  91:Drivers/STM32F1xx_HAL_Driver/Src/stm32f1xx_hal_can.c ****   * THIS SOFTWARE IS PROVIDED BY THE COPYRIGHT HOLDERS AND CONTRIBUTORS "AS IS"
  92:Drivers/STM32F1xx_HAL_Driver/Src/stm32f1xx_hal_can.c ****   * AND ANY EXPRESS OR IMPLIED WARRANTIES, INCLUDING, BUT NOT LIMITED TO, THE
  93:Drivers/STM32F1xx_HAL_Driver/Src/stm32f1xx_hal_can.c ****   * IMPLIED WARRANTIES OF MERCHANTABILITY AND FITNESS FOR A PARTICULAR PURPOSE ARE
  94:Drivers/STM32F1xx_HAL_Driver/Src/stm32f1xx_hal_can.c ****   * DISCLAIMED. IN NO EVENT SHALL THE COPYRIGHT HOLDER OR CONTRIBUTORS BE LIABLE
  95:Drivers/STM32F1xx_HAL_Driver/Src/stm32f1xx_hal_can.c ****   * FOR ANY DIRECT, INDIRECT, INCIDENTAL, SPECIAL, EXEMPLARY, OR CONSEQUENTIAL
  96:Drivers/STM32F1xx_HAL_Driver/Src/stm32f1xx_hal_can.c ****   * DAMAGES (INCLUDING, BUT NOT LIMITED TO, PROCUREMENT OF SUBSTITUTE GOODS OR
  97:Drivers/STM32F1xx_HAL_Driver/Src/stm32f1xx_hal_can.c ****   * SERVICES; LOSS OF USE, DATA, OR PROFITS; OR BUSINESS INTERRUPTION) HOWEVER
  98:Drivers/STM32F1xx_HAL_Driver/Src/stm32f1xx_hal_can.c ****   * CAUSED AND ON ANY THEORY OF LIABILITY, WHETHER IN CONTRACT, STRICT LIABILITY,
  99:Drivers/STM32F1xx_HAL_Driver/Src/stm32f1xx_hal_can.c ****   * OR TORT (INCLUDING NEGLIGENCE OR OTHERWISE) ARISING IN ANY WAY OUT OF THE USE
 100:Drivers/STM32F1xx_HAL_Driver/Src/stm32f1xx_hal_can.c ****   * OF THIS SOFTWARE, EVEN IF ADVISED OF THE POSSIBILITY OF SUCH DAMAGE.
 101:Drivers/STM32F1xx_HAL_Driver/Src/stm32f1xx_hal_can.c ****   *
 102:Drivers/STM32F1xx_HAL_Driver/Src/stm32f1xx_hal_can.c ****   ******************************************************************************
 103:Drivers/STM32F1xx_HAL_Driver/Src/stm32f1xx_hal_can.c ****   */
 104:Drivers/STM32F1xx_HAL_Driver/Src/stm32f1xx_hal_can.c **** 
 105:Drivers/STM32F1xx_HAL_Driver/Src/stm32f1xx_hal_can.c **** /* Includes ------------------------------------------------------------------*/
 106:Drivers/STM32F1xx_HAL_Driver/Src/stm32f1xx_hal_can.c **** #include "stm32f1xx_hal.h"
 107:Drivers/STM32F1xx_HAL_Driver/Src/stm32f1xx_hal_can.c **** 
 108:Drivers/STM32F1xx_HAL_Driver/Src/stm32f1xx_hal_can.c **** /** @addtogroup STM32F1xx_HAL_Driver
 109:Drivers/STM32F1xx_HAL_Driver/Src/stm32f1xx_hal_can.c ****   * @{
 110:Drivers/STM32F1xx_HAL_Driver/Src/stm32f1xx_hal_can.c ****   */
 111:Drivers/STM32F1xx_HAL_Driver/Src/stm32f1xx_hal_can.c **** 
 112:Drivers/STM32F1xx_HAL_Driver/Src/stm32f1xx_hal_can.c **** /** @defgroup CAN CAN
 113:Drivers/STM32F1xx_HAL_Driver/Src/stm32f1xx_hal_can.c ****   * @brief CAN driver modules
 114:Drivers/STM32F1xx_HAL_Driver/Src/stm32f1xx_hal_can.c ****   * @{
 115:Drivers/STM32F1xx_HAL_Driver/Src/stm32f1xx_hal_can.c ****   */
 116:Drivers/STM32F1xx_HAL_Driver/Src/stm32f1xx_hal_can.c **** 
 117:Drivers/STM32F1xx_HAL_Driver/Src/stm32f1xx_hal_can.c **** #ifdef HAL_CAN_MODULE_ENABLED  
 118:Drivers/STM32F1xx_HAL_Driver/Src/stm32f1xx_hal_can.c ****   
 119:Drivers/STM32F1xx_HAL_Driver/Src/stm32f1xx_hal_can.c **** #if defined(STM32F103x6) || defined(STM32F103xB) || defined(STM32F103xE) || \
 120:Drivers/STM32F1xx_HAL_Driver/Src/stm32f1xx_hal_can.c ****     defined(STM32F103xG) || defined(STM32F105xC) || defined(STM32F107xC)
 121:Drivers/STM32F1xx_HAL_Driver/Src/stm32f1xx_hal_can.c ****   
 122:Drivers/STM32F1xx_HAL_Driver/Src/stm32f1xx_hal_can.c **** 
 123:Drivers/STM32F1xx_HAL_Driver/Src/stm32f1xx_hal_can.c **** /* Private typedef -----------------------------------------------------------*/
 124:Drivers/STM32F1xx_HAL_Driver/Src/stm32f1xx_hal_can.c **** /* Private define ------------------------------------------------------------*/
 125:Drivers/STM32F1xx_HAL_Driver/Src/stm32f1xx_hal_can.c **** /** @defgroup CAN_Private_Constants CAN Private Constants
 126:Drivers/STM32F1xx_HAL_Driver/Src/stm32f1xx_hal_can.c ****   * @{
 127:Drivers/STM32F1xx_HAL_Driver/Src/stm32f1xx_hal_can.c ****   */
 128:Drivers/STM32F1xx_HAL_Driver/Src/stm32f1xx_hal_can.c **** #define CAN_TIMEOUT_VALUE  10U
 129:Drivers/STM32F1xx_HAL_Driver/Src/stm32f1xx_hal_can.c **** /**
 130:Drivers/STM32F1xx_HAL_Driver/Src/stm32f1xx_hal_can.c ****   * @}
 131:Drivers/STM32F1xx_HAL_Driver/Src/stm32f1xx_hal_can.c ****   */
 132:Drivers/STM32F1xx_HAL_Driver/Src/stm32f1xx_hal_can.c **** /* Private macro -------------------------------------------------------------*/
 133:Drivers/STM32F1xx_HAL_Driver/Src/stm32f1xx_hal_can.c **** /* Private variables ---------------------------------------------------------*/
 134:Drivers/STM32F1xx_HAL_Driver/Src/stm32f1xx_hal_can.c **** /* Private function prototypes -----------------------------------------------*/
 135:Drivers/STM32F1xx_HAL_Driver/Src/stm32f1xx_hal_can.c **** /** @defgroup CAN_Private_Functions CAN Private Functions
 136:Drivers/STM32F1xx_HAL_Driver/Src/stm32f1xx_hal_can.c ****   * @{
 137:Drivers/STM32F1xx_HAL_Driver/Src/stm32f1xx_hal_can.c ****   */
 138:Drivers/STM32F1xx_HAL_Driver/Src/stm32f1xx_hal_can.c **** static HAL_StatusTypeDef CAN_Receive_IT(CAN_HandleTypeDef* hcan, uint8_t FIFONumber);
 139:Drivers/STM32F1xx_HAL_Driver/Src/stm32f1xx_hal_can.c **** static HAL_StatusTypeDef CAN_Transmit_IT(CAN_HandleTypeDef* hcan);
 140:Drivers/STM32F1xx_HAL_Driver/Src/stm32f1xx_hal_can.c **** /**
 141:Drivers/STM32F1xx_HAL_Driver/Src/stm32f1xx_hal_can.c ****   * @}
 142:Drivers/STM32F1xx_HAL_Driver/Src/stm32f1xx_hal_can.c ****   */
 143:Drivers/STM32F1xx_HAL_Driver/Src/stm32f1xx_hal_can.c **** 
 144:Drivers/STM32F1xx_HAL_Driver/Src/stm32f1xx_hal_can.c **** /* Exported functions --------------------------------------------------------*/
 145:Drivers/STM32F1xx_HAL_Driver/Src/stm32f1xx_hal_can.c **** /** @defgroup CAN_Exported_Functions CAN Exported Functions
 146:Drivers/STM32F1xx_HAL_Driver/Src/stm32f1xx_hal_can.c ****   * @{
ARM GAS  /tmp/ccRsISvi.s 			page 4


 147:Drivers/STM32F1xx_HAL_Driver/Src/stm32f1xx_hal_can.c ****   */
 148:Drivers/STM32F1xx_HAL_Driver/Src/stm32f1xx_hal_can.c **** 
 149:Drivers/STM32F1xx_HAL_Driver/Src/stm32f1xx_hal_can.c **** /** @defgroup CAN_Exported_Functions_Group1 Initialization and de-initialization functions 
 150:Drivers/STM32F1xx_HAL_Driver/Src/stm32f1xx_hal_can.c ****  *  @brief    Initialization and Configuration functions 
 151:Drivers/STM32F1xx_HAL_Driver/Src/stm32f1xx_hal_can.c ****  *
 152:Drivers/STM32F1xx_HAL_Driver/Src/stm32f1xx_hal_can.c **** @verbatim    
 153:Drivers/STM32F1xx_HAL_Driver/Src/stm32f1xx_hal_can.c ****   ==============================================================================
 154:Drivers/STM32F1xx_HAL_Driver/Src/stm32f1xx_hal_can.c ****               ##### Initialization and de-initialization functions #####
 155:Drivers/STM32F1xx_HAL_Driver/Src/stm32f1xx_hal_can.c ****   ==============================================================================
 156:Drivers/STM32F1xx_HAL_Driver/Src/stm32f1xx_hal_can.c ****     [..]  This section provides functions allowing to:
 157:Drivers/STM32F1xx_HAL_Driver/Src/stm32f1xx_hal_can.c ****       (+) Initialize and configure the CAN. 
 158:Drivers/STM32F1xx_HAL_Driver/Src/stm32f1xx_hal_can.c ****       (+) De-initialize the CAN. 
 159:Drivers/STM32F1xx_HAL_Driver/Src/stm32f1xx_hal_can.c ****          
 160:Drivers/STM32F1xx_HAL_Driver/Src/stm32f1xx_hal_can.c **** @endverbatim
 161:Drivers/STM32F1xx_HAL_Driver/Src/stm32f1xx_hal_can.c ****   * @{
 162:Drivers/STM32F1xx_HAL_Driver/Src/stm32f1xx_hal_can.c ****   */
 163:Drivers/STM32F1xx_HAL_Driver/Src/stm32f1xx_hal_can.c ****   
 164:Drivers/STM32F1xx_HAL_Driver/Src/stm32f1xx_hal_can.c **** /**
 165:Drivers/STM32F1xx_HAL_Driver/Src/stm32f1xx_hal_can.c ****   * @brief  Initializes the CAN peripheral according to the specified
 166:Drivers/STM32F1xx_HAL_Driver/Src/stm32f1xx_hal_can.c ****   *         parameters in the CAN_InitStruct.
 167:Drivers/STM32F1xx_HAL_Driver/Src/stm32f1xx_hal_can.c ****   * @param  hcan: pointer to a CAN_HandleTypeDef structure that contains
 168:Drivers/STM32F1xx_HAL_Driver/Src/stm32f1xx_hal_can.c ****   *         the configuration information for the specified CAN.  
 169:Drivers/STM32F1xx_HAL_Driver/Src/stm32f1xx_hal_can.c ****   * @retval HAL status
 170:Drivers/STM32F1xx_HAL_Driver/Src/stm32f1xx_hal_can.c ****   */
 171:Drivers/STM32F1xx_HAL_Driver/Src/stm32f1xx_hal_can.c **** HAL_StatusTypeDef HAL_CAN_Init(CAN_HandleTypeDef* hcan)
 172:Drivers/STM32F1xx_HAL_Driver/Src/stm32f1xx_hal_can.c **** {
 173:Drivers/STM32F1xx_HAL_Driver/Src/stm32f1xx_hal_can.c ****   uint32_t status = CAN_INITSTATUS_FAILED;  /* Default init status */
 174:Drivers/STM32F1xx_HAL_Driver/Src/stm32f1xx_hal_can.c ****   uint32_t tickstart = 0U;
 175:Drivers/STM32F1xx_HAL_Driver/Src/stm32f1xx_hal_can.c ****   uint32_t tmp_mcr = 0U;
 176:Drivers/STM32F1xx_HAL_Driver/Src/stm32f1xx_hal_can.c ****   
 177:Drivers/STM32F1xx_HAL_Driver/Src/stm32f1xx_hal_can.c ****   /* Check CAN handle */
 178:Drivers/STM32F1xx_HAL_Driver/Src/stm32f1xx_hal_can.c ****   if(hcan == NULL)
 179:Drivers/STM32F1xx_HAL_Driver/Src/stm32f1xx_hal_can.c ****   {
 180:Drivers/STM32F1xx_HAL_Driver/Src/stm32f1xx_hal_can.c ****      return HAL_ERROR;
 181:Drivers/STM32F1xx_HAL_Driver/Src/stm32f1xx_hal_can.c ****   }
 182:Drivers/STM32F1xx_HAL_Driver/Src/stm32f1xx_hal_can.c **** 
 183:Drivers/STM32F1xx_HAL_Driver/Src/stm32f1xx_hal_can.c ****   /* Check the parameters */
 184:Drivers/STM32F1xx_HAL_Driver/Src/stm32f1xx_hal_can.c ****   assert_param(IS_CAN_ALL_INSTANCE(hcan->Instance));
 185:Drivers/STM32F1xx_HAL_Driver/Src/stm32f1xx_hal_can.c ****   assert_param(IS_FUNCTIONAL_STATE(hcan->Init.TTCM));
 186:Drivers/STM32F1xx_HAL_Driver/Src/stm32f1xx_hal_can.c ****   assert_param(IS_FUNCTIONAL_STATE(hcan->Init.ABOM));
 187:Drivers/STM32F1xx_HAL_Driver/Src/stm32f1xx_hal_can.c ****   assert_param(IS_FUNCTIONAL_STATE(hcan->Init.AWUM));
 188:Drivers/STM32F1xx_HAL_Driver/Src/stm32f1xx_hal_can.c ****   assert_param(IS_FUNCTIONAL_STATE(hcan->Init.NART));
 189:Drivers/STM32F1xx_HAL_Driver/Src/stm32f1xx_hal_can.c ****   assert_param(IS_FUNCTIONAL_STATE(hcan->Init.RFLM));
 190:Drivers/STM32F1xx_HAL_Driver/Src/stm32f1xx_hal_can.c ****   assert_param(IS_FUNCTIONAL_STATE(hcan->Init.TXFP));
 191:Drivers/STM32F1xx_HAL_Driver/Src/stm32f1xx_hal_can.c ****   assert_param(IS_CAN_MODE(hcan->Init.Mode));
 192:Drivers/STM32F1xx_HAL_Driver/Src/stm32f1xx_hal_can.c ****   assert_param(IS_CAN_SJW(hcan->Init.SJW));
 193:Drivers/STM32F1xx_HAL_Driver/Src/stm32f1xx_hal_can.c ****   assert_param(IS_CAN_BS1(hcan->Init.BS1));
 194:Drivers/STM32F1xx_HAL_Driver/Src/stm32f1xx_hal_can.c ****   assert_param(IS_CAN_BS2(hcan->Init.BS2));
 195:Drivers/STM32F1xx_HAL_Driver/Src/stm32f1xx_hal_can.c ****   assert_param(IS_CAN_PRESCALER(hcan->Init.Prescaler));
 196:Drivers/STM32F1xx_HAL_Driver/Src/stm32f1xx_hal_can.c ****   
 197:Drivers/STM32F1xx_HAL_Driver/Src/stm32f1xx_hal_can.c ****   if(hcan->State == HAL_CAN_STATE_RESET)
 198:Drivers/STM32F1xx_HAL_Driver/Src/stm32f1xx_hal_can.c ****   {
 199:Drivers/STM32F1xx_HAL_Driver/Src/stm32f1xx_hal_can.c ****     /* Allocate lock resource and initialize it */
 200:Drivers/STM32F1xx_HAL_Driver/Src/stm32f1xx_hal_can.c ****     hcan->Lock = HAL_UNLOCKED;
 201:Drivers/STM32F1xx_HAL_Driver/Src/stm32f1xx_hal_can.c ****     /* Init the low level hardware */
 202:Drivers/STM32F1xx_HAL_Driver/Src/stm32f1xx_hal_can.c ****     HAL_CAN_MspInit(hcan);
 203:Drivers/STM32F1xx_HAL_Driver/Src/stm32f1xx_hal_can.c ****   }
ARM GAS  /tmp/ccRsISvi.s 			page 5


 204:Drivers/STM32F1xx_HAL_Driver/Src/stm32f1xx_hal_can.c ****   
 205:Drivers/STM32F1xx_HAL_Driver/Src/stm32f1xx_hal_can.c ****   /* Initialize the CAN state*/
 206:Drivers/STM32F1xx_HAL_Driver/Src/stm32f1xx_hal_can.c ****   hcan->State = HAL_CAN_STATE_BUSY;
 207:Drivers/STM32F1xx_HAL_Driver/Src/stm32f1xx_hal_can.c ****   
 208:Drivers/STM32F1xx_HAL_Driver/Src/stm32f1xx_hal_can.c ****   /* Exit from sleep mode */
 209:Drivers/STM32F1xx_HAL_Driver/Src/stm32f1xx_hal_can.c ****   CLEAR_BIT(hcan->Instance->MCR, CAN_MCR_SLEEP);
 210:Drivers/STM32F1xx_HAL_Driver/Src/stm32f1xx_hal_can.c **** 
 211:Drivers/STM32F1xx_HAL_Driver/Src/stm32f1xx_hal_can.c ****   /* Request initialisation */
 212:Drivers/STM32F1xx_HAL_Driver/Src/stm32f1xx_hal_can.c ****   SET_BIT(hcan->Instance->MCR, CAN_MCR_INRQ);
 213:Drivers/STM32F1xx_HAL_Driver/Src/stm32f1xx_hal_can.c **** 
 214:Drivers/STM32F1xx_HAL_Driver/Src/stm32f1xx_hal_can.c ****   /* Get timeout */
 215:Drivers/STM32F1xx_HAL_Driver/Src/stm32f1xx_hal_can.c ****   tickstart = HAL_GetTick();   
 216:Drivers/STM32F1xx_HAL_Driver/Src/stm32f1xx_hal_can.c ****   
 217:Drivers/STM32F1xx_HAL_Driver/Src/stm32f1xx_hal_can.c ****   /* Wait the acknowledge */
 218:Drivers/STM32F1xx_HAL_Driver/Src/stm32f1xx_hal_can.c ****   while(HAL_IS_BIT_CLR(hcan->Instance->MSR, CAN_MSR_INAK))
 219:Drivers/STM32F1xx_HAL_Driver/Src/stm32f1xx_hal_can.c ****   {
 220:Drivers/STM32F1xx_HAL_Driver/Src/stm32f1xx_hal_can.c ****     if((HAL_GetTick()-tickstart) > CAN_TIMEOUT_VALUE)
 221:Drivers/STM32F1xx_HAL_Driver/Src/stm32f1xx_hal_can.c ****     {
 222:Drivers/STM32F1xx_HAL_Driver/Src/stm32f1xx_hal_can.c ****       hcan->State= HAL_CAN_STATE_TIMEOUT;
 223:Drivers/STM32F1xx_HAL_Driver/Src/stm32f1xx_hal_can.c ****       /* Process unlocked */
 224:Drivers/STM32F1xx_HAL_Driver/Src/stm32f1xx_hal_can.c ****       __HAL_UNLOCK(hcan);
 225:Drivers/STM32F1xx_HAL_Driver/Src/stm32f1xx_hal_can.c ****       return HAL_TIMEOUT;
 226:Drivers/STM32F1xx_HAL_Driver/Src/stm32f1xx_hal_can.c ****     }
 227:Drivers/STM32F1xx_HAL_Driver/Src/stm32f1xx_hal_can.c ****   }
 228:Drivers/STM32F1xx_HAL_Driver/Src/stm32f1xx_hal_can.c **** 
 229:Drivers/STM32F1xx_HAL_Driver/Src/stm32f1xx_hal_can.c ****   /* Check acknowledge */
 230:Drivers/STM32F1xx_HAL_Driver/Src/stm32f1xx_hal_can.c ****   if ((hcan->Instance->MSR & CAN_MSR_INAK) == CAN_MSR_INAK)
 231:Drivers/STM32F1xx_HAL_Driver/Src/stm32f1xx_hal_can.c ****   {
 232:Drivers/STM32F1xx_HAL_Driver/Src/stm32f1xx_hal_can.c ****     /* Set the time triggered communication mode */
 233:Drivers/STM32F1xx_HAL_Driver/Src/stm32f1xx_hal_can.c ****     if (hcan->Init.TTCM == ENABLE)
 234:Drivers/STM32F1xx_HAL_Driver/Src/stm32f1xx_hal_can.c ****     {
 235:Drivers/STM32F1xx_HAL_Driver/Src/stm32f1xx_hal_can.c ****       SET_BIT(tmp_mcr, CAN_MCR_TTCM);
 236:Drivers/STM32F1xx_HAL_Driver/Src/stm32f1xx_hal_can.c ****     }
 237:Drivers/STM32F1xx_HAL_Driver/Src/stm32f1xx_hal_can.c ****     else
 238:Drivers/STM32F1xx_HAL_Driver/Src/stm32f1xx_hal_can.c ****     {
 239:Drivers/STM32F1xx_HAL_Driver/Src/stm32f1xx_hal_can.c ****       CLEAR_BIT(tmp_mcr, CAN_MCR_TTCM);
 240:Drivers/STM32F1xx_HAL_Driver/Src/stm32f1xx_hal_can.c ****     }
 241:Drivers/STM32F1xx_HAL_Driver/Src/stm32f1xx_hal_can.c **** 
 242:Drivers/STM32F1xx_HAL_Driver/Src/stm32f1xx_hal_can.c ****     /* Set the automatic bus-off management */
 243:Drivers/STM32F1xx_HAL_Driver/Src/stm32f1xx_hal_can.c ****     if (hcan->Init.ABOM == ENABLE)
 244:Drivers/STM32F1xx_HAL_Driver/Src/stm32f1xx_hal_can.c ****     {
 245:Drivers/STM32F1xx_HAL_Driver/Src/stm32f1xx_hal_can.c ****       SET_BIT(tmp_mcr, CAN_MCR_ABOM);
 246:Drivers/STM32F1xx_HAL_Driver/Src/stm32f1xx_hal_can.c ****     }
 247:Drivers/STM32F1xx_HAL_Driver/Src/stm32f1xx_hal_can.c ****     else
 248:Drivers/STM32F1xx_HAL_Driver/Src/stm32f1xx_hal_can.c ****     {
 249:Drivers/STM32F1xx_HAL_Driver/Src/stm32f1xx_hal_can.c ****       CLEAR_BIT(tmp_mcr, CAN_MCR_ABOM);
 250:Drivers/STM32F1xx_HAL_Driver/Src/stm32f1xx_hal_can.c ****     }
 251:Drivers/STM32F1xx_HAL_Driver/Src/stm32f1xx_hal_can.c **** 
 252:Drivers/STM32F1xx_HAL_Driver/Src/stm32f1xx_hal_can.c ****     /* Set the automatic wake-up mode */
 253:Drivers/STM32F1xx_HAL_Driver/Src/stm32f1xx_hal_can.c ****     if (hcan->Init.AWUM == ENABLE)
 254:Drivers/STM32F1xx_HAL_Driver/Src/stm32f1xx_hal_can.c ****     {
 255:Drivers/STM32F1xx_HAL_Driver/Src/stm32f1xx_hal_can.c ****       SET_BIT(tmp_mcr, CAN_MCR_AWUM);
 256:Drivers/STM32F1xx_HAL_Driver/Src/stm32f1xx_hal_can.c ****     }
 257:Drivers/STM32F1xx_HAL_Driver/Src/stm32f1xx_hal_can.c ****     else
 258:Drivers/STM32F1xx_HAL_Driver/Src/stm32f1xx_hal_can.c ****     {
 259:Drivers/STM32F1xx_HAL_Driver/Src/stm32f1xx_hal_can.c ****       CLEAR_BIT(tmp_mcr, CAN_MCR_AWUM);
 260:Drivers/STM32F1xx_HAL_Driver/Src/stm32f1xx_hal_can.c ****     }
ARM GAS  /tmp/ccRsISvi.s 			page 6


 261:Drivers/STM32F1xx_HAL_Driver/Src/stm32f1xx_hal_can.c ****     /* Set the no automatic retransmission */
 262:Drivers/STM32F1xx_HAL_Driver/Src/stm32f1xx_hal_can.c ****     if (hcan->Init.NART == ENABLE)
 263:Drivers/STM32F1xx_HAL_Driver/Src/stm32f1xx_hal_can.c ****     {
 264:Drivers/STM32F1xx_HAL_Driver/Src/stm32f1xx_hal_can.c ****       SET_BIT(tmp_mcr, CAN_MCR_NART);
 265:Drivers/STM32F1xx_HAL_Driver/Src/stm32f1xx_hal_can.c ****     }
 266:Drivers/STM32F1xx_HAL_Driver/Src/stm32f1xx_hal_can.c ****     else
 267:Drivers/STM32F1xx_HAL_Driver/Src/stm32f1xx_hal_can.c ****     {
 268:Drivers/STM32F1xx_HAL_Driver/Src/stm32f1xx_hal_can.c ****       CLEAR_BIT(tmp_mcr, CAN_MCR_NART);
 269:Drivers/STM32F1xx_HAL_Driver/Src/stm32f1xx_hal_can.c ****     }
 270:Drivers/STM32F1xx_HAL_Driver/Src/stm32f1xx_hal_can.c **** 
 271:Drivers/STM32F1xx_HAL_Driver/Src/stm32f1xx_hal_can.c ****     /* Set the receive FIFO locked mode */
 272:Drivers/STM32F1xx_HAL_Driver/Src/stm32f1xx_hal_can.c ****     if (hcan->Init.RFLM == ENABLE)
 273:Drivers/STM32F1xx_HAL_Driver/Src/stm32f1xx_hal_can.c ****     {
 274:Drivers/STM32F1xx_HAL_Driver/Src/stm32f1xx_hal_can.c ****       SET_BIT(tmp_mcr, CAN_MCR_RFLM);
 275:Drivers/STM32F1xx_HAL_Driver/Src/stm32f1xx_hal_can.c ****     }
 276:Drivers/STM32F1xx_HAL_Driver/Src/stm32f1xx_hal_can.c ****     else
 277:Drivers/STM32F1xx_HAL_Driver/Src/stm32f1xx_hal_can.c ****     {
 278:Drivers/STM32F1xx_HAL_Driver/Src/stm32f1xx_hal_can.c ****       CLEAR_BIT(tmp_mcr, CAN_MCR_RFLM);
 279:Drivers/STM32F1xx_HAL_Driver/Src/stm32f1xx_hal_can.c ****     }
 280:Drivers/STM32F1xx_HAL_Driver/Src/stm32f1xx_hal_can.c ****     /* Set the transmit FIFO priority */
 281:Drivers/STM32F1xx_HAL_Driver/Src/stm32f1xx_hal_can.c ****     if (hcan->Init.TXFP == ENABLE)
 282:Drivers/STM32F1xx_HAL_Driver/Src/stm32f1xx_hal_can.c ****     {
 283:Drivers/STM32F1xx_HAL_Driver/Src/stm32f1xx_hal_can.c ****       SET_BIT(tmp_mcr, CAN_MCR_TXFP);
 284:Drivers/STM32F1xx_HAL_Driver/Src/stm32f1xx_hal_can.c ****     }
 285:Drivers/STM32F1xx_HAL_Driver/Src/stm32f1xx_hal_can.c ****     else
 286:Drivers/STM32F1xx_HAL_Driver/Src/stm32f1xx_hal_can.c ****     {
 287:Drivers/STM32F1xx_HAL_Driver/Src/stm32f1xx_hal_can.c ****       CLEAR_BIT(tmp_mcr, CAN_MCR_TXFP);
 288:Drivers/STM32F1xx_HAL_Driver/Src/stm32f1xx_hal_can.c ****     }
 289:Drivers/STM32F1xx_HAL_Driver/Src/stm32f1xx_hal_can.c ****     
 290:Drivers/STM32F1xx_HAL_Driver/Src/stm32f1xx_hal_can.c ****     /* Update register MCR */
 291:Drivers/STM32F1xx_HAL_Driver/Src/stm32f1xx_hal_can.c ****     MODIFY_REG(hcan->Instance->MCR,
 292:Drivers/STM32F1xx_HAL_Driver/Src/stm32f1xx_hal_can.c ****                CAN_MCR_TTCM |
 293:Drivers/STM32F1xx_HAL_Driver/Src/stm32f1xx_hal_can.c ****                CAN_MCR_ABOM |
 294:Drivers/STM32F1xx_HAL_Driver/Src/stm32f1xx_hal_can.c ****                CAN_MCR_AWUM |
 295:Drivers/STM32F1xx_HAL_Driver/Src/stm32f1xx_hal_can.c ****                CAN_MCR_NART |
 296:Drivers/STM32F1xx_HAL_Driver/Src/stm32f1xx_hal_can.c ****                CAN_MCR_RFLM |
 297:Drivers/STM32F1xx_HAL_Driver/Src/stm32f1xx_hal_can.c ****                CAN_MCR_TXFP,
 298:Drivers/STM32F1xx_HAL_Driver/Src/stm32f1xx_hal_can.c ****                tmp_mcr);
 299:Drivers/STM32F1xx_HAL_Driver/Src/stm32f1xx_hal_can.c ****     
 300:Drivers/STM32F1xx_HAL_Driver/Src/stm32f1xx_hal_can.c ****     /* Set the bit timing register */
 301:Drivers/STM32F1xx_HAL_Driver/Src/stm32f1xx_hal_can.c ****     WRITE_REG(hcan->Instance->BTR, (uint32_t)(hcan->Init.Mode           |
 302:Drivers/STM32F1xx_HAL_Driver/Src/stm32f1xx_hal_can.c ****                                               hcan->Init.SJW            |
 303:Drivers/STM32F1xx_HAL_Driver/Src/stm32f1xx_hal_can.c ****                                               hcan->Init.BS1            |
 304:Drivers/STM32F1xx_HAL_Driver/Src/stm32f1xx_hal_can.c ****                                               hcan->Init.BS2            |
 305:Drivers/STM32F1xx_HAL_Driver/Src/stm32f1xx_hal_can.c ****                                               (hcan->Init.Prescaler - 1U)));
 306:Drivers/STM32F1xx_HAL_Driver/Src/stm32f1xx_hal_can.c **** 
 307:Drivers/STM32F1xx_HAL_Driver/Src/stm32f1xx_hal_can.c ****     /* Request leave initialisation */
 308:Drivers/STM32F1xx_HAL_Driver/Src/stm32f1xx_hal_can.c ****     CLEAR_BIT(hcan->Instance->MCR, CAN_MCR_INRQ);
 309:Drivers/STM32F1xx_HAL_Driver/Src/stm32f1xx_hal_can.c **** 
 310:Drivers/STM32F1xx_HAL_Driver/Src/stm32f1xx_hal_can.c ****     /* Get timeout */
 311:Drivers/STM32F1xx_HAL_Driver/Src/stm32f1xx_hal_can.c ****     tickstart = HAL_GetTick();   
 312:Drivers/STM32F1xx_HAL_Driver/Src/stm32f1xx_hal_can.c ****    
 313:Drivers/STM32F1xx_HAL_Driver/Src/stm32f1xx_hal_can.c ****     /* Wait the acknowledge */
 314:Drivers/STM32F1xx_HAL_Driver/Src/stm32f1xx_hal_can.c ****     while(HAL_IS_BIT_SET(hcan->Instance->MSR, CAN_MSR_INAK))
 315:Drivers/STM32F1xx_HAL_Driver/Src/stm32f1xx_hal_can.c ****     {
 316:Drivers/STM32F1xx_HAL_Driver/Src/stm32f1xx_hal_can.c ****       if((HAL_GetTick()-tickstart) > CAN_TIMEOUT_VALUE)
 317:Drivers/STM32F1xx_HAL_Driver/Src/stm32f1xx_hal_can.c ****       {
ARM GAS  /tmp/ccRsISvi.s 			page 7


 318:Drivers/STM32F1xx_HAL_Driver/Src/stm32f1xx_hal_can.c ****         hcan->State= HAL_CAN_STATE_TIMEOUT;
 319:Drivers/STM32F1xx_HAL_Driver/Src/stm32f1xx_hal_can.c **** 
 320:Drivers/STM32F1xx_HAL_Driver/Src/stm32f1xx_hal_can.c ****         /* Process unlocked */
 321:Drivers/STM32F1xx_HAL_Driver/Src/stm32f1xx_hal_can.c ****         __HAL_UNLOCK(hcan);
 322:Drivers/STM32F1xx_HAL_Driver/Src/stm32f1xx_hal_can.c **** 
 323:Drivers/STM32F1xx_HAL_Driver/Src/stm32f1xx_hal_can.c ****         return HAL_TIMEOUT;
 324:Drivers/STM32F1xx_HAL_Driver/Src/stm32f1xx_hal_can.c ****       }
 325:Drivers/STM32F1xx_HAL_Driver/Src/stm32f1xx_hal_can.c ****     }
 326:Drivers/STM32F1xx_HAL_Driver/Src/stm32f1xx_hal_can.c **** 
 327:Drivers/STM32F1xx_HAL_Driver/Src/stm32f1xx_hal_can.c ****     /* Check acknowledged */
 328:Drivers/STM32F1xx_HAL_Driver/Src/stm32f1xx_hal_can.c ****     if(HAL_IS_BIT_CLR(hcan->Instance->MSR, CAN_MSR_INAK))
 329:Drivers/STM32F1xx_HAL_Driver/Src/stm32f1xx_hal_can.c ****     {
 330:Drivers/STM32F1xx_HAL_Driver/Src/stm32f1xx_hal_can.c ****       status = CAN_INITSTATUS_SUCCESS;
 331:Drivers/STM32F1xx_HAL_Driver/Src/stm32f1xx_hal_can.c ****     }
 332:Drivers/STM32F1xx_HAL_Driver/Src/stm32f1xx_hal_can.c ****   }
 333:Drivers/STM32F1xx_HAL_Driver/Src/stm32f1xx_hal_can.c ****  
 334:Drivers/STM32F1xx_HAL_Driver/Src/stm32f1xx_hal_can.c ****   if(status == CAN_INITSTATUS_SUCCESS)
 335:Drivers/STM32F1xx_HAL_Driver/Src/stm32f1xx_hal_can.c ****   {
 336:Drivers/STM32F1xx_HAL_Driver/Src/stm32f1xx_hal_can.c ****     /* Set CAN error code to none */
 337:Drivers/STM32F1xx_HAL_Driver/Src/stm32f1xx_hal_can.c ****     hcan->ErrorCode = HAL_CAN_ERROR_NONE;
 338:Drivers/STM32F1xx_HAL_Driver/Src/stm32f1xx_hal_can.c ****     
 339:Drivers/STM32F1xx_HAL_Driver/Src/stm32f1xx_hal_can.c ****     /* Initialize the CAN state */
 340:Drivers/STM32F1xx_HAL_Driver/Src/stm32f1xx_hal_can.c ****     hcan->State = HAL_CAN_STATE_READY;
 341:Drivers/STM32F1xx_HAL_Driver/Src/stm32f1xx_hal_can.c ****   
 342:Drivers/STM32F1xx_HAL_Driver/Src/stm32f1xx_hal_can.c ****     /* Return function status */
 343:Drivers/STM32F1xx_HAL_Driver/Src/stm32f1xx_hal_can.c ****     return HAL_OK;
 344:Drivers/STM32F1xx_HAL_Driver/Src/stm32f1xx_hal_can.c ****   }
 345:Drivers/STM32F1xx_HAL_Driver/Src/stm32f1xx_hal_can.c ****   else
 346:Drivers/STM32F1xx_HAL_Driver/Src/stm32f1xx_hal_can.c ****   {
 347:Drivers/STM32F1xx_HAL_Driver/Src/stm32f1xx_hal_can.c ****     /* Initialize the CAN state */
 348:Drivers/STM32F1xx_HAL_Driver/Src/stm32f1xx_hal_can.c ****     hcan->State = HAL_CAN_STATE_ERROR;
 349:Drivers/STM32F1xx_HAL_Driver/Src/stm32f1xx_hal_can.c **** 
 350:Drivers/STM32F1xx_HAL_Driver/Src/stm32f1xx_hal_can.c ****     /* Return function status */
 351:Drivers/STM32F1xx_HAL_Driver/Src/stm32f1xx_hal_can.c ****     return HAL_ERROR;
 352:Drivers/STM32F1xx_HAL_Driver/Src/stm32f1xx_hal_can.c ****   }
 353:Drivers/STM32F1xx_HAL_Driver/Src/stm32f1xx_hal_can.c **** }
 354:Drivers/STM32F1xx_HAL_Driver/Src/stm32f1xx_hal_can.c **** 
 355:Drivers/STM32F1xx_HAL_Driver/Src/stm32f1xx_hal_can.c **** /**
 356:Drivers/STM32F1xx_HAL_Driver/Src/stm32f1xx_hal_can.c ****   * @brief  Configures the CAN reception filter according to the specified
 357:Drivers/STM32F1xx_HAL_Driver/Src/stm32f1xx_hal_can.c ****   *         parameters in the CAN_FilterInitStruct.
 358:Drivers/STM32F1xx_HAL_Driver/Src/stm32f1xx_hal_can.c ****   * @param  hcan: pointer to a CAN_HandleTypeDef structure that contains
 359:Drivers/STM32F1xx_HAL_Driver/Src/stm32f1xx_hal_can.c ****   *         the configuration information for the specified CAN.
 360:Drivers/STM32F1xx_HAL_Driver/Src/stm32f1xx_hal_can.c ****   * @param  sFilterConfig: pointer to a CAN_FilterConfTypeDef structure that
 361:Drivers/STM32F1xx_HAL_Driver/Src/stm32f1xx_hal_can.c ****   *         contains the filter configuration information.
 362:Drivers/STM32F1xx_HAL_Driver/Src/stm32f1xx_hal_can.c ****   * @retval None
 363:Drivers/STM32F1xx_HAL_Driver/Src/stm32f1xx_hal_can.c ****   */
 364:Drivers/STM32F1xx_HAL_Driver/Src/stm32f1xx_hal_can.c **** HAL_StatusTypeDef HAL_CAN_ConfigFilter(CAN_HandleTypeDef* hcan, CAN_FilterConfTypeDef* sFilterConfi
 365:Drivers/STM32F1xx_HAL_Driver/Src/stm32f1xx_hal_can.c **** {
  27              		.loc 1 365 0
  28              		.cfi_startproc
  29              		@ args = 0, pretend = 0, frame = 0
  30              		@ frame_needed = 0, uses_anonymous_args = 0
  31              		@ link register save eliminated.
  32              	.LVL0:
  33 0000 F0B4     		push	{r4, r5, r6, r7}
  34              	.LCFI0:
  35              		.cfi_def_cfa_offset 16
ARM GAS  /tmp/ccRsISvi.s 			page 8


  36              		.cfi_offset 4, -16
  37              		.cfi_offset 5, -12
  38              		.cfi_offset 6, -8
  39              		.cfi_offset 7, -4
  40              	.LVL1:
 366:Drivers/STM32F1xx_HAL_Driver/Src/stm32f1xx_hal_can.c ****   uint32_t filternbrbitpos = 0U;
 367:Drivers/STM32F1xx_HAL_Driver/Src/stm32f1xx_hal_can.c ****   
 368:Drivers/STM32F1xx_HAL_Driver/Src/stm32f1xx_hal_can.c ****   /* Prevent unused argument(s) compilation warning */
 369:Drivers/STM32F1xx_HAL_Driver/Src/stm32f1xx_hal_can.c ****   UNUSED(hcan);
 370:Drivers/STM32F1xx_HAL_Driver/Src/stm32f1xx_hal_can.c **** 
 371:Drivers/STM32F1xx_HAL_Driver/Src/stm32f1xx_hal_can.c ****   /* Check the parameters */
 372:Drivers/STM32F1xx_HAL_Driver/Src/stm32f1xx_hal_can.c ****   assert_param(IS_CAN_FILTER_NUMBER(sFilterConfig->FilterNumber));
 373:Drivers/STM32F1xx_HAL_Driver/Src/stm32f1xx_hal_can.c ****   assert_param(IS_CAN_FILTER_MODE(sFilterConfig->FilterMode));
 374:Drivers/STM32F1xx_HAL_Driver/Src/stm32f1xx_hal_can.c ****   assert_param(IS_CAN_FILTER_SCALE(sFilterConfig->FilterScale));
 375:Drivers/STM32F1xx_HAL_Driver/Src/stm32f1xx_hal_can.c ****   assert_param(IS_CAN_FILTER_FIFO(sFilterConfig->FilterFIFOAssignment));
 376:Drivers/STM32F1xx_HAL_Driver/Src/stm32f1xx_hal_can.c ****   assert_param(IS_FUNCTIONAL_STATE(sFilterConfig->FilterActivation));
 377:Drivers/STM32F1xx_HAL_Driver/Src/stm32f1xx_hal_can.c ****   assert_param(IS_CAN_BANKNUMBER(sFilterConfig->BankNumber));
 378:Drivers/STM32F1xx_HAL_Driver/Src/stm32f1xx_hal_can.c ****   
 379:Drivers/STM32F1xx_HAL_Driver/Src/stm32f1xx_hal_can.c ****   filternbrbitpos = (1U) << sFilterConfig->FilterNumber;
  41              		.loc 1 379 0
  42 0002 4B69     		ldr	r3, [r1, #20]
  43 0004 0122     		movs	r2, #1
  44 0006 9A40     		lsls	r2, r2, r3
  45              	.LVL2:
 380:Drivers/STM32F1xx_HAL_Driver/Src/stm32f1xx_hal_can.c **** 
 381:Drivers/STM32F1xx_HAL_Driver/Src/stm32f1xx_hal_can.c ****   /* Initialisation mode for the filter */
 382:Drivers/STM32F1xx_HAL_Driver/Src/stm32f1xx_hal_can.c ****   /* Select the start slave bank */
 383:Drivers/STM32F1xx_HAL_Driver/Src/stm32f1xx_hal_can.c ****   MODIFY_REG(hcan->Instance->FMR                         ,
  46              		.loc 1 383 0
  47 0008 0468     		ldr	r4, [r0]
  48 000a D4F80032 		ldr	r3, [r4, #512]
  49 000e 23F47C53 		bic	r3, r3, #16128
  50 0012 4D6A     		ldr	r5, [r1, #36]
  51 0014 43EA0523 		orr	r3, r3, r5, lsl #8
  52 0018 43F00103 		orr	r3, r3, #1
  53 001c C4F80032 		str	r3, [r4, #512]
 384:Drivers/STM32F1xx_HAL_Driver/Src/stm32f1xx_hal_can.c ****              CAN_FMR_CAN2SB                              ,
 385:Drivers/STM32F1xx_HAL_Driver/Src/stm32f1xx_hal_can.c ****              CAN_FMR_FINIT                              |
 386:Drivers/STM32F1xx_HAL_Driver/Src/stm32f1xx_hal_can.c ****              (uint32_t)(sFilterConfig->BankNumber << 8U)   );
 387:Drivers/STM32F1xx_HAL_Driver/Src/stm32f1xx_hal_can.c **** 
 388:Drivers/STM32F1xx_HAL_Driver/Src/stm32f1xx_hal_can.c ****   /* Filter Deactivation */
 389:Drivers/STM32F1xx_HAL_Driver/Src/stm32f1xx_hal_can.c ****   CLEAR_BIT(hcan->Instance->FA1R, filternbrbitpos);
  54              		.loc 1 389 0
  55 0020 0568     		ldr	r5, [r0]
  56 0022 D5F81C32 		ldr	r3, [r5, #540]
  57 0026 D443     		mvns	r4, r2
  58 0028 2340     		ands	r3, r3, r4
  59 002a C5F81C32 		str	r3, [r5, #540]
 390:Drivers/STM32F1xx_HAL_Driver/Src/stm32f1xx_hal_can.c **** 
 391:Drivers/STM32F1xx_HAL_Driver/Src/stm32f1xx_hal_can.c ****   /* Filter Scale */
 392:Drivers/STM32F1xx_HAL_Driver/Src/stm32f1xx_hal_can.c ****   if (sFilterConfig->FilterScale == CAN_FILTERSCALE_16BIT)
  60              		.loc 1 392 0
  61 002e CB69     		ldr	r3, [r1, #28]
  62 0030 C3B9     		cbnz	r3, .L2
 393:Drivers/STM32F1xx_HAL_Driver/Src/stm32f1xx_hal_can.c ****   {
 394:Drivers/STM32F1xx_HAL_Driver/Src/stm32f1xx_hal_can.c ****     /* 16-bit scale for the filter */
 395:Drivers/STM32F1xx_HAL_Driver/Src/stm32f1xx_hal_can.c ****     CLEAR_BIT(hcan->Instance->FS1R, filternbrbitpos);
ARM GAS  /tmp/ccRsISvi.s 			page 9


  63              		.loc 1 395 0
  64 0032 0568     		ldr	r5, [r0]
  65 0034 D5F80C32 		ldr	r3, [r5, #524]
  66 0038 2340     		ands	r3, r3, r4
  67 003a C5F80C32 		str	r3, [r5, #524]
 396:Drivers/STM32F1xx_HAL_Driver/Src/stm32f1xx_hal_can.c **** 
 397:Drivers/STM32F1xx_HAL_Driver/Src/stm32f1xx_hal_can.c ****     /* First 16-bit identifier and First 16-bit mask */
 398:Drivers/STM32F1xx_HAL_Driver/Src/stm32f1xx_hal_can.c ****     /* Or First 16-bit identifier and Second 16-bit identifier */
 399:Drivers/STM32F1xx_HAL_Driver/Src/stm32f1xx_hal_can.c ****     hcan->Instance->sFilterRegister[sFilterConfig->FilterNumber].FR1 = 
  68              		.loc 1 399 0
  69 003e 0668     		ldr	r6, [r0]
  70 0040 4B69     		ldr	r3, [r1, #20]
 400:Drivers/STM32F1xx_HAL_Driver/Src/stm32f1xx_hal_can.c ****        ((0x0000FFFFU & (uint32_t)sFilterConfig->FilterMaskIdLow) << 16U) |
  71              		.loc 1 400 0
  72 0042 CF68     		ldr	r7, [r1, #12]
 401:Drivers/STM32F1xx_HAL_Driver/Src/stm32f1xx_hal_can.c ****         (0x0000FFFFU & (uint32_t)sFilterConfig->FilterIdLow);
  73              		.loc 1 401 0
  74 0044 8D88     		ldrh	r5, [r1, #4]
 400:Drivers/STM32F1xx_HAL_Driver/Src/stm32f1xx_hal_can.c ****        ((0x0000FFFFU & (uint32_t)sFilterConfig->FilterMaskIdLow) << 16U) |
  75              		.loc 1 400 0
  76 0046 45EA0745 		orr	r5, r5, r7, lsl #16
 399:Drivers/STM32F1xx_HAL_Driver/Src/stm32f1xx_hal_can.c ****        ((0x0000FFFFU & (uint32_t)sFilterConfig->FilterMaskIdLow) << 16U) |
  77              		.loc 1 399 0
  78 004a 4833     		adds	r3, r3, #72
  79 004c 46F83350 		str	r5, [r6, r3, lsl #3]
 402:Drivers/STM32F1xx_HAL_Driver/Src/stm32f1xx_hal_can.c **** 
 403:Drivers/STM32F1xx_HAL_Driver/Src/stm32f1xx_hal_can.c ****     /* Second 16-bit identifier and Second 16-bit mask */
 404:Drivers/STM32F1xx_HAL_Driver/Src/stm32f1xx_hal_can.c ****     /* Or Third 16-bit identifier and Fourth 16-bit identifier */
 405:Drivers/STM32F1xx_HAL_Driver/Src/stm32f1xx_hal_can.c ****     hcan->Instance->sFilterRegister[sFilterConfig->FilterNumber].FR2 = 
  80              		.loc 1 405 0
  81 0050 0368     		ldr	r3, [r0]
  82 0052 4E69     		ldr	r6, [r1, #20]
 406:Drivers/STM32F1xx_HAL_Driver/Src/stm32f1xx_hal_can.c ****        ((0x0000FFFFU & (uint32_t)sFilterConfig->FilterMaskIdHigh) << 16U) |
  83              		.loc 1 406 0
  84 0054 8F68     		ldr	r7, [r1, #8]
 407:Drivers/STM32F1xx_HAL_Driver/Src/stm32f1xx_hal_can.c ****         (0x0000FFFFU & (uint32_t)sFilterConfig->FilterIdHigh);
  85              		.loc 1 407 0
  86 0056 0D88     		ldrh	r5, [r1]
 406:Drivers/STM32F1xx_HAL_Driver/Src/stm32f1xx_hal_can.c ****        ((0x0000FFFFU & (uint32_t)sFilterConfig->FilterMaskIdHigh) << 16U) |
  87              		.loc 1 406 0
  88 0058 45EA0745 		orr	r5, r5, r7, lsl #16
 405:Drivers/STM32F1xx_HAL_Driver/Src/stm32f1xx_hal_can.c ****        ((0x0000FFFFU & (uint32_t)sFilterConfig->FilterMaskIdHigh) << 16U) |
  89              		.loc 1 405 0
  90 005c 4836     		adds	r6, r6, #72
  91 005e 03EBC603 		add	r3, r3, r6, lsl #3
  92 0062 5D60     		str	r5, [r3, #4]
  93              	.L2:
 408:Drivers/STM32F1xx_HAL_Driver/Src/stm32f1xx_hal_can.c ****   }
 409:Drivers/STM32F1xx_HAL_Driver/Src/stm32f1xx_hal_can.c **** 
 410:Drivers/STM32F1xx_HAL_Driver/Src/stm32f1xx_hal_can.c ****   if (sFilterConfig->FilterScale == CAN_FILTERSCALE_32BIT)
  94              		.loc 1 410 0
  95 0064 CB69     		ldr	r3, [r1, #28]
  96 0066 012B     		cmp	r3, #1
  97 0068 18D1     		bne	.L3
 411:Drivers/STM32F1xx_HAL_Driver/Src/stm32f1xx_hal_can.c ****   {
 412:Drivers/STM32F1xx_HAL_Driver/Src/stm32f1xx_hal_can.c ****     /* 32-bit scale for the filter */
 413:Drivers/STM32F1xx_HAL_Driver/Src/stm32f1xx_hal_can.c ****     SET_BIT(hcan->Instance->FS1R, filternbrbitpos);
ARM GAS  /tmp/ccRsISvi.s 			page 10


  98              		.loc 1 413 0
  99 006a 0568     		ldr	r5, [r0]
 100 006c D5F80C32 		ldr	r3, [r5, #524]
 101 0070 1343     		orrs	r3, r3, r2
 102 0072 C5F80C32 		str	r3, [r5, #524]
 414:Drivers/STM32F1xx_HAL_Driver/Src/stm32f1xx_hal_can.c ****     /* 32-bit identifier or First 32-bit identifier */
 415:Drivers/STM32F1xx_HAL_Driver/Src/stm32f1xx_hal_can.c ****     hcan->Instance->sFilterRegister[sFilterConfig->FilterNumber].FR1 = 
 103              		.loc 1 415 0
 104 0076 0668     		ldr	r6, [r0]
 105 0078 4B69     		ldr	r3, [r1, #20]
 416:Drivers/STM32F1xx_HAL_Driver/Src/stm32f1xx_hal_can.c ****        ((0x0000FFFFU & (uint32_t)sFilterConfig->FilterIdHigh) << 16U) |
 106              		.loc 1 416 0
 107 007a 0F68     		ldr	r7, [r1]
 417:Drivers/STM32F1xx_HAL_Driver/Src/stm32f1xx_hal_can.c ****         (0x0000FFFFU & (uint32_t)sFilterConfig->FilterIdLow);
 108              		.loc 1 417 0
 109 007c 8D88     		ldrh	r5, [r1, #4]
 416:Drivers/STM32F1xx_HAL_Driver/Src/stm32f1xx_hal_can.c ****        ((0x0000FFFFU & (uint32_t)sFilterConfig->FilterIdHigh) << 16U) |
 110              		.loc 1 416 0
 111 007e 45EA0745 		orr	r5, r5, r7, lsl #16
 415:Drivers/STM32F1xx_HAL_Driver/Src/stm32f1xx_hal_can.c ****        ((0x0000FFFFU & (uint32_t)sFilterConfig->FilterIdHigh) << 16U) |
 112              		.loc 1 415 0
 113 0082 4833     		adds	r3, r3, #72
 114 0084 46F83350 		str	r5, [r6, r3, lsl #3]
 418:Drivers/STM32F1xx_HAL_Driver/Src/stm32f1xx_hal_can.c ****     /* 32-bit mask or Second 32-bit identifier */
 419:Drivers/STM32F1xx_HAL_Driver/Src/stm32f1xx_hal_can.c ****     hcan->Instance->sFilterRegister[sFilterConfig->FilterNumber].FR2 = 
 115              		.loc 1 419 0
 116 0088 0368     		ldr	r3, [r0]
 117 008a 4E69     		ldr	r6, [r1, #20]
 420:Drivers/STM32F1xx_HAL_Driver/Src/stm32f1xx_hal_can.c ****        ((0x0000FFFFU & (uint32_t)sFilterConfig->FilterMaskIdHigh) << 16U) |
 118              		.loc 1 420 0
 119 008c 8F68     		ldr	r7, [r1, #8]
 421:Drivers/STM32F1xx_HAL_Driver/Src/stm32f1xx_hal_can.c ****         (0x0000FFFFU & (uint32_t)sFilterConfig->FilterMaskIdLow);
 120              		.loc 1 421 0
 121 008e 8D89     		ldrh	r5, [r1, #12]
 420:Drivers/STM32F1xx_HAL_Driver/Src/stm32f1xx_hal_can.c ****        ((0x0000FFFFU & (uint32_t)sFilterConfig->FilterMaskIdHigh) << 16U) |
 122              		.loc 1 420 0
 123 0090 45EA0745 		orr	r5, r5, r7, lsl #16
 419:Drivers/STM32F1xx_HAL_Driver/Src/stm32f1xx_hal_can.c ****        ((0x0000FFFFU & (uint32_t)sFilterConfig->FilterMaskIdHigh) << 16U) |
 124              		.loc 1 419 0
 125 0094 4836     		adds	r6, r6, #72
 126 0096 03EBC603 		add	r3, r3, r6, lsl #3
 127 009a 5D60     		str	r5, [r3, #4]
 128              	.L3:
 422:Drivers/STM32F1xx_HAL_Driver/Src/stm32f1xx_hal_can.c ****   }
 423:Drivers/STM32F1xx_HAL_Driver/Src/stm32f1xx_hal_can.c **** 
 424:Drivers/STM32F1xx_HAL_Driver/Src/stm32f1xx_hal_can.c ****   /* Filter Mode */
 425:Drivers/STM32F1xx_HAL_Driver/Src/stm32f1xx_hal_can.c ****   if (sFilterConfig->FilterMode == CAN_FILTERMODE_IDMASK)
 129              		.loc 1 425 0
 130 009c 8B69     		ldr	r3, [r1, #24]
 131 009e 33B9     		cbnz	r3, .L4
 426:Drivers/STM32F1xx_HAL_Driver/Src/stm32f1xx_hal_can.c ****   {
 427:Drivers/STM32F1xx_HAL_Driver/Src/stm32f1xx_hal_can.c ****     /*Id/Mask mode for the filter*/
 428:Drivers/STM32F1xx_HAL_Driver/Src/stm32f1xx_hal_can.c ****     CLEAR_BIT(hcan->Instance->FM1R, filternbrbitpos);
 132              		.loc 1 428 0
 133 00a0 0568     		ldr	r5, [r0]
 134 00a2 D5F80432 		ldr	r3, [r5, #516]
 135 00a6 2340     		ands	r3, r3, r4
ARM GAS  /tmp/ccRsISvi.s 			page 11


 136 00a8 C5F80432 		str	r3, [r5, #516]
 137 00ac 05E0     		b	.L5
 138              	.L4:
 429:Drivers/STM32F1xx_HAL_Driver/Src/stm32f1xx_hal_can.c ****   }
 430:Drivers/STM32F1xx_HAL_Driver/Src/stm32f1xx_hal_can.c ****   else /* CAN_FilterInitStruct->CAN_FilterMode == CAN_FilterMode_IdList */
 431:Drivers/STM32F1xx_HAL_Driver/Src/stm32f1xx_hal_can.c ****   {
 432:Drivers/STM32F1xx_HAL_Driver/Src/stm32f1xx_hal_can.c ****     /*Identifier list mode for the filter*/
 433:Drivers/STM32F1xx_HAL_Driver/Src/stm32f1xx_hal_can.c ****     SET_BIT(hcan->Instance->FM1R, filternbrbitpos);
 139              		.loc 1 433 0
 140 00ae 0568     		ldr	r5, [r0]
 141 00b0 D5F80432 		ldr	r3, [r5, #516]
 142 00b4 1343     		orrs	r3, r3, r2
 143 00b6 C5F80432 		str	r3, [r5, #516]
 144              	.L5:
 434:Drivers/STM32F1xx_HAL_Driver/Src/stm32f1xx_hal_can.c ****   }
 435:Drivers/STM32F1xx_HAL_Driver/Src/stm32f1xx_hal_can.c **** 
 436:Drivers/STM32F1xx_HAL_Driver/Src/stm32f1xx_hal_can.c ****   /* Filter FIFO assignment */
 437:Drivers/STM32F1xx_HAL_Driver/Src/stm32f1xx_hal_can.c ****   if (sFilterConfig->FilterFIFOAssignment == CAN_FILTER_FIFO0)
 145              		.loc 1 437 0
 146 00ba 0B69     		ldr	r3, [r1, #16]
 147 00bc 33B9     		cbnz	r3, .L6
 438:Drivers/STM32F1xx_HAL_Driver/Src/stm32f1xx_hal_can.c ****   {
 439:Drivers/STM32F1xx_HAL_Driver/Src/stm32f1xx_hal_can.c ****     /* FIFO 0 assignation for the filter */
 440:Drivers/STM32F1xx_HAL_Driver/Src/stm32f1xx_hal_can.c ****     CLEAR_BIT(hcan->Instance->FFA1R, filternbrbitpos);
 148              		.loc 1 440 0
 149 00be 0568     		ldr	r5, [r0]
 150 00c0 D5F81432 		ldr	r3, [r5, #532]
 151 00c4 1C40     		ands	r4, r4, r3
 152 00c6 C5F81442 		str	r4, [r5, #532]
 153 00ca 05E0     		b	.L7
 154              	.L6:
 441:Drivers/STM32F1xx_HAL_Driver/Src/stm32f1xx_hal_can.c ****   }
 442:Drivers/STM32F1xx_HAL_Driver/Src/stm32f1xx_hal_can.c ****   else
 443:Drivers/STM32F1xx_HAL_Driver/Src/stm32f1xx_hal_can.c ****   {
 444:Drivers/STM32F1xx_HAL_Driver/Src/stm32f1xx_hal_can.c ****     /* FIFO 1 assignation for the filter */
 445:Drivers/STM32F1xx_HAL_Driver/Src/stm32f1xx_hal_can.c ****     SET_BIT(hcan->Instance->FFA1R, filternbrbitpos);
 155              		.loc 1 445 0
 156 00cc 0468     		ldr	r4, [r0]
 157 00ce D4F81432 		ldr	r3, [r4, #532]
 158 00d2 1343     		orrs	r3, r3, r2
 159 00d4 C4F81432 		str	r3, [r4, #532]
 160              	.L7:
 446:Drivers/STM32F1xx_HAL_Driver/Src/stm32f1xx_hal_can.c ****   }
 447:Drivers/STM32F1xx_HAL_Driver/Src/stm32f1xx_hal_can.c ****   
 448:Drivers/STM32F1xx_HAL_Driver/Src/stm32f1xx_hal_can.c ****   /* Filter activation */
 449:Drivers/STM32F1xx_HAL_Driver/Src/stm32f1xx_hal_can.c ****   if (sFilterConfig->FilterActivation == ENABLE)
 161              		.loc 1 449 0
 162 00d8 0B6A     		ldr	r3, [r1, #32]
 163 00da 012B     		cmp	r3, #1
 164 00dc 05D1     		bne	.L8
 450:Drivers/STM32F1xx_HAL_Driver/Src/stm32f1xx_hal_can.c ****   {
 451:Drivers/STM32F1xx_HAL_Driver/Src/stm32f1xx_hal_can.c ****     SET_BIT(hcan->Instance->FA1R, filternbrbitpos);
 165              		.loc 1 451 0
 166 00de 0368     		ldr	r3, [r0]
 167 00e0 D3F81C12 		ldr	r1, [r3, #540]
 168              	.LVL3:
 169 00e4 0A43     		orrs	r2, r2, r1
ARM GAS  /tmp/ccRsISvi.s 			page 12


 170              	.LVL4:
 171 00e6 C3F81C22 		str	r2, [r3, #540]
 172              	.L8:
 452:Drivers/STM32F1xx_HAL_Driver/Src/stm32f1xx_hal_can.c ****   }
 453:Drivers/STM32F1xx_HAL_Driver/Src/stm32f1xx_hal_can.c **** 
 454:Drivers/STM32F1xx_HAL_Driver/Src/stm32f1xx_hal_can.c ****   /* Leave the initialisation mode for the filter */
 455:Drivers/STM32F1xx_HAL_Driver/Src/stm32f1xx_hal_can.c ****   CLEAR_BIT(hcan->Instance->FMR, ((uint32_t)CAN_FMR_FINIT));
 173              		.loc 1 455 0
 174 00ea 0268     		ldr	r2, [r0]
 175 00ec D2F80032 		ldr	r3, [r2, #512]
 176 00f0 23F00103 		bic	r3, r3, #1
 177 00f4 C2F80032 		str	r3, [r2, #512]
 456:Drivers/STM32F1xx_HAL_Driver/Src/stm32f1xx_hal_can.c ****   
 457:Drivers/STM32F1xx_HAL_Driver/Src/stm32f1xx_hal_can.c ****   /* Return function status */
 458:Drivers/STM32F1xx_HAL_Driver/Src/stm32f1xx_hal_can.c ****   return HAL_OK;
 459:Drivers/STM32F1xx_HAL_Driver/Src/stm32f1xx_hal_can.c **** }
 178              		.loc 1 459 0
 179 00f8 0020     		movs	r0, #0
 180              	.LVL5:
 181 00fa F0BC     		pop	{r4, r5, r6, r7}
 182              	.LCFI1:
 183              		.cfi_restore 7
 184              		.cfi_restore 6
 185              		.cfi_restore 5
 186              		.cfi_restore 4
 187              		.cfi_def_cfa_offset 0
 188 00fc 7047     		bx	lr
 189              		.cfi_endproc
 190              	.LFE64:
 192 00fe 00BF     		.section	.text.HAL_CAN_MspInit,"ax",%progbits
 193              		.align	2
 194              		.weak	HAL_CAN_MspInit
 195              		.thumb
 196              		.thumb_func
 198              	HAL_CAN_MspInit:
 199              	.LFB66:
 460:Drivers/STM32F1xx_HAL_Driver/Src/stm32f1xx_hal_can.c **** 
 461:Drivers/STM32F1xx_HAL_Driver/Src/stm32f1xx_hal_can.c **** /**
 462:Drivers/STM32F1xx_HAL_Driver/Src/stm32f1xx_hal_can.c ****   * @brief  Deinitializes the CANx peripheral registers to their default reset values. 
 463:Drivers/STM32F1xx_HAL_Driver/Src/stm32f1xx_hal_can.c ****   * @param  hcan: pointer to a CAN_HandleTypeDef structure that contains
 464:Drivers/STM32F1xx_HAL_Driver/Src/stm32f1xx_hal_can.c ****   *         the configuration information for the specified CAN.  
 465:Drivers/STM32F1xx_HAL_Driver/Src/stm32f1xx_hal_can.c ****   * @retval HAL status
 466:Drivers/STM32F1xx_HAL_Driver/Src/stm32f1xx_hal_can.c ****   */
 467:Drivers/STM32F1xx_HAL_Driver/Src/stm32f1xx_hal_can.c **** HAL_StatusTypeDef HAL_CAN_DeInit(CAN_HandleTypeDef* hcan)
 468:Drivers/STM32F1xx_HAL_Driver/Src/stm32f1xx_hal_can.c **** {
 469:Drivers/STM32F1xx_HAL_Driver/Src/stm32f1xx_hal_can.c ****   /* Check CAN handle */
 470:Drivers/STM32F1xx_HAL_Driver/Src/stm32f1xx_hal_can.c ****   if(hcan == NULL)
 471:Drivers/STM32F1xx_HAL_Driver/Src/stm32f1xx_hal_can.c ****   {
 472:Drivers/STM32F1xx_HAL_Driver/Src/stm32f1xx_hal_can.c ****      return HAL_ERROR;
 473:Drivers/STM32F1xx_HAL_Driver/Src/stm32f1xx_hal_can.c ****   }
 474:Drivers/STM32F1xx_HAL_Driver/Src/stm32f1xx_hal_can.c ****   
 475:Drivers/STM32F1xx_HAL_Driver/Src/stm32f1xx_hal_can.c ****   /* Check the parameters */
 476:Drivers/STM32F1xx_HAL_Driver/Src/stm32f1xx_hal_can.c ****   assert_param(IS_CAN_ALL_INSTANCE(hcan->Instance));
 477:Drivers/STM32F1xx_HAL_Driver/Src/stm32f1xx_hal_can.c ****   
 478:Drivers/STM32F1xx_HAL_Driver/Src/stm32f1xx_hal_can.c ****   /* Change CAN state */
 479:Drivers/STM32F1xx_HAL_Driver/Src/stm32f1xx_hal_can.c ****   hcan->State = HAL_CAN_STATE_BUSY;
 480:Drivers/STM32F1xx_HAL_Driver/Src/stm32f1xx_hal_can.c ****   
ARM GAS  /tmp/ccRsISvi.s 			page 13


 481:Drivers/STM32F1xx_HAL_Driver/Src/stm32f1xx_hal_can.c ****   /* DeInit the low level hardware */
 482:Drivers/STM32F1xx_HAL_Driver/Src/stm32f1xx_hal_can.c ****   HAL_CAN_MspDeInit(hcan);
 483:Drivers/STM32F1xx_HAL_Driver/Src/stm32f1xx_hal_can.c ****   
 484:Drivers/STM32F1xx_HAL_Driver/Src/stm32f1xx_hal_can.c ****   /* Change CAN state */
 485:Drivers/STM32F1xx_HAL_Driver/Src/stm32f1xx_hal_can.c ****   hcan->State = HAL_CAN_STATE_RESET;
 486:Drivers/STM32F1xx_HAL_Driver/Src/stm32f1xx_hal_can.c **** 
 487:Drivers/STM32F1xx_HAL_Driver/Src/stm32f1xx_hal_can.c ****   /* Release Lock */
 488:Drivers/STM32F1xx_HAL_Driver/Src/stm32f1xx_hal_can.c ****   __HAL_UNLOCK(hcan);
 489:Drivers/STM32F1xx_HAL_Driver/Src/stm32f1xx_hal_can.c **** 
 490:Drivers/STM32F1xx_HAL_Driver/Src/stm32f1xx_hal_can.c ****   /* Return function status */
 491:Drivers/STM32F1xx_HAL_Driver/Src/stm32f1xx_hal_can.c ****   return HAL_OK;
 492:Drivers/STM32F1xx_HAL_Driver/Src/stm32f1xx_hal_can.c **** }
 493:Drivers/STM32F1xx_HAL_Driver/Src/stm32f1xx_hal_can.c **** 
 494:Drivers/STM32F1xx_HAL_Driver/Src/stm32f1xx_hal_can.c **** /**
 495:Drivers/STM32F1xx_HAL_Driver/Src/stm32f1xx_hal_can.c ****   * @brief  Initializes the CAN MSP.
 496:Drivers/STM32F1xx_HAL_Driver/Src/stm32f1xx_hal_can.c ****   * @param  hcan: pointer to a CAN_HandleTypeDef structure that contains
 497:Drivers/STM32F1xx_HAL_Driver/Src/stm32f1xx_hal_can.c ****   *         the configuration information for the specified CAN.  
 498:Drivers/STM32F1xx_HAL_Driver/Src/stm32f1xx_hal_can.c ****   * @retval None
 499:Drivers/STM32F1xx_HAL_Driver/Src/stm32f1xx_hal_can.c ****   */
 500:Drivers/STM32F1xx_HAL_Driver/Src/stm32f1xx_hal_can.c **** __weak void HAL_CAN_MspInit(CAN_HandleTypeDef* hcan)
 501:Drivers/STM32F1xx_HAL_Driver/Src/stm32f1xx_hal_can.c **** {
 200              		.loc 1 501 0
 201              		.cfi_startproc
 202              		@ args = 0, pretend = 0, frame = 0
 203              		@ frame_needed = 0, uses_anonymous_args = 0
 204              		@ link register save eliminated.
 205              	.LVL6:
 206 0000 7047     		bx	lr
 207              		.cfi_endproc
 208              	.LFE66:
 210 0002 00BF     		.section	.text.HAL_CAN_Init,"ax",%progbits
 211              		.align	2
 212              		.global	HAL_CAN_Init
 213              		.thumb
 214              		.thumb_func
 216              	HAL_CAN_Init:
 217              	.LFB63:
 172:Drivers/STM32F1xx_HAL_Driver/Src/stm32f1xx_hal_can.c ****   uint32_t status = CAN_INITSTATUS_FAILED;  /* Default init status */
 218              		.loc 1 172 0
 219              		.cfi_startproc
 220              		@ args = 0, pretend = 0, frame = 0
 221              		@ frame_needed = 0, uses_anonymous_args = 0
 222              	.LVL7:
 178:Drivers/STM32F1xx_HAL_Driver/Src/stm32f1xx_hal_can.c ****   {
 223              		.loc 1 178 0
 224 0000 0028     		cmp	r0, #0
 225 0002 00F0A080 		beq	.L31
 172:Drivers/STM32F1xx_HAL_Driver/Src/stm32f1xx_hal_can.c ****   uint32_t status = CAN_INITSTATUS_FAILED;  /* Default init status */
 226              		.loc 1 172 0
 227 0006 38B5     		push	{r3, r4, r5, lr}
 228              	.LCFI2:
 229              		.cfi_def_cfa_offset 16
 230              		.cfi_offset 3, -16
 231              		.cfi_offset 4, -12
 232              		.cfi_offset 5, -8
 233              		.cfi_offset 14, -4
 234 0008 0446     		mov	r4, r0
ARM GAS  /tmp/ccRsISvi.s 			page 14


 197:Drivers/STM32F1xx_HAL_Driver/Src/stm32f1xx_hal_can.c ****   {
 235              		.loc 1 197 0
 236 000a 90F83C30 		ldrb	r3, [r0, #60]	@ zero_extendqisi2
 237 000e 13F0FF0F 		tst	r3, #255
 238 0012 04D1     		bne	.L13
 200:Drivers/STM32F1xx_HAL_Driver/Src/stm32f1xx_hal_can.c ****     /* Init the low level hardware */
 239              		.loc 1 200 0
 240 0014 0023     		movs	r3, #0
 241 0016 80F83D30 		strb	r3, [r0, #61]
 202:Drivers/STM32F1xx_HAL_Driver/Src/stm32f1xx_hal_can.c ****   }
 242              		.loc 1 202 0
 243 001a FFF7FEFF 		bl	HAL_CAN_MspInit
 244              	.LVL8:
 245              	.L13:
 206:Drivers/STM32F1xx_HAL_Driver/Src/stm32f1xx_hal_can.c ****   
 246              		.loc 1 206 0
 247 001e 0223     		movs	r3, #2
 248 0020 84F83C30 		strb	r3, [r4, #60]
 209:Drivers/STM32F1xx_HAL_Driver/Src/stm32f1xx_hal_can.c **** 
 249              		.loc 1 209 0
 250 0024 2268     		ldr	r2, [r4]
 251 0026 1368     		ldr	r3, [r2]
 252 0028 23F00203 		bic	r3, r3, #2
 253 002c 1360     		str	r3, [r2]
 212:Drivers/STM32F1xx_HAL_Driver/Src/stm32f1xx_hal_can.c **** 
 254              		.loc 1 212 0
 255 002e 2268     		ldr	r2, [r4]
 256 0030 1368     		ldr	r3, [r2]
 257 0032 43F00103 		orr	r3, r3, #1
 258 0036 1360     		str	r3, [r2]
 215:Drivers/STM32F1xx_HAL_Driver/Src/stm32f1xx_hal_can.c ****   
 259              		.loc 1 215 0
 260 0038 FFF7FEFF 		bl	HAL_GetTick
 261              	.LVL9:
 262 003c 0546     		mov	r5, r0
 263              	.LVL10:
 218:Drivers/STM32F1xx_HAL_Driver/Src/stm32f1xx_hal_can.c ****   {
 264              		.loc 1 218 0
 265 003e 0BE0     		b	.L14
 266              	.LVL11:
 267              	.L15:
 220:Drivers/STM32F1xx_HAL_Driver/Src/stm32f1xx_hal_can.c ****     {
 268              		.loc 1 220 0
 269 0040 FFF7FEFF 		bl	HAL_GetTick
 270              	.LVL12:
 271 0044 401B     		subs	r0, r0, r5
 272 0046 0A28     		cmp	r0, #10
 273 0048 06D9     		bls	.L14
 222:Drivers/STM32F1xx_HAL_Driver/Src/stm32f1xx_hal_can.c ****       /* Process unlocked */
 274              		.loc 1 222 0
 275 004a 0320     		movs	r0, #3
 276 004c 84F83C00 		strb	r0, [r4, #60]
 224:Drivers/STM32F1xx_HAL_Driver/Src/stm32f1xx_hal_can.c ****       return HAL_TIMEOUT;
 277              		.loc 1 224 0
 278 0050 0023     		movs	r3, #0
 279 0052 84F83D30 		strb	r3, [r4, #61]
 225:Drivers/STM32F1xx_HAL_Driver/Src/stm32f1xx_hal_can.c ****     }
ARM GAS  /tmp/ccRsISvi.s 			page 15


 280              		.loc 1 225 0
 281 0056 38BD     		pop	{r3, r4, r5, pc}
 282              	.LVL13:
 283              	.L14:
 218:Drivers/STM32F1xx_HAL_Driver/Src/stm32f1xx_hal_can.c ****   {
 284              		.loc 1 218 0
 285 0058 2368     		ldr	r3, [r4]
 286 005a 5A68     		ldr	r2, [r3, #4]
 287 005c 12F0010F 		tst	r2, #1
 288 0060 EED0     		beq	.L15
 230:Drivers/STM32F1xx_HAL_Driver/Src/stm32f1xx_hal_can.c ****   {
 289              		.loc 1 230 0
 290 0062 5A68     		ldr	r2, [r3, #4]
 291 0064 12F0010F 		tst	r2, #1
 292 0068 5ED0     		beq	.L32
 233:Drivers/STM32F1xx_HAL_Driver/Src/stm32f1xx_hal_can.c ****     {
 293              		.loc 1 233 0
 294 006a A269     		ldr	r2, [r4, #24]
 295 006c 012A     		cmp	r2, #1
 296 006e 01D1     		bne	.L33
 235:Drivers/STM32F1xx_HAL_Driver/Src/stm32f1xx_hal_can.c ****     }
 297              		.loc 1 235 0
 298 0070 8022     		movs	r2, #128
 299 0072 00E0     		b	.L17
 300              	.L33:
 239:Drivers/STM32F1xx_HAL_Driver/Src/stm32f1xx_hal_can.c ****     }
 301              		.loc 1 239 0
 302 0074 0022     		movs	r2, #0
 303              	.L17:
 304              	.LVL14:
 243:Drivers/STM32F1xx_HAL_Driver/Src/stm32f1xx_hal_can.c ****     {
 305              		.loc 1 243 0
 306 0076 E169     		ldr	r1, [r4, #28]
 307 0078 0129     		cmp	r1, #1
 308 007a 02D1     		bne	.L18
 245:Drivers/STM32F1xx_HAL_Driver/Src/stm32f1xx_hal_can.c ****     }
 309              		.loc 1 245 0
 310 007c 42F04002 		orr	r2, r2, #64
 311              	.LVL15:
 312 0080 01E0     		b	.L19
 313              	.L18:
 249:Drivers/STM32F1xx_HAL_Driver/Src/stm32f1xx_hal_can.c ****     }
 314              		.loc 1 249 0
 315 0082 22F04002 		bic	r2, r2, #64
 316              	.LVL16:
 317              	.L19:
 253:Drivers/STM32F1xx_HAL_Driver/Src/stm32f1xx_hal_can.c ****     {
 318              		.loc 1 253 0
 319 0086 216A     		ldr	r1, [r4, #32]
 320 0088 0129     		cmp	r1, #1
 321 008a 02D1     		bne	.L20
 255:Drivers/STM32F1xx_HAL_Driver/Src/stm32f1xx_hal_can.c ****     }
 322              		.loc 1 255 0
 323 008c 42F02002 		orr	r2, r2, #32
 324              	.LVL17:
 325 0090 01E0     		b	.L21
 326              	.L20:
ARM GAS  /tmp/ccRsISvi.s 			page 16


 259:Drivers/STM32F1xx_HAL_Driver/Src/stm32f1xx_hal_can.c ****     }
 327              		.loc 1 259 0
 328 0092 22F02002 		bic	r2, r2, #32
 329              	.LVL18:
 330              	.L21:
 262:Drivers/STM32F1xx_HAL_Driver/Src/stm32f1xx_hal_can.c ****     {
 331              		.loc 1 262 0
 332 0096 616A     		ldr	r1, [r4, #36]
 333 0098 0129     		cmp	r1, #1
 334 009a 02D1     		bne	.L22
 264:Drivers/STM32F1xx_HAL_Driver/Src/stm32f1xx_hal_can.c ****     }
 335              		.loc 1 264 0
 336 009c 42F01002 		orr	r2, r2, #16
 337              	.LVL19:
 338 00a0 01E0     		b	.L23
 339              	.L22:
 268:Drivers/STM32F1xx_HAL_Driver/Src/stm32f1xx_hal_can.c ****     }
 340              		.loc 1 268 0
 341 00a2 22F01002 		bic	r2, r2, #16
 342              	.LVL20:
 343              	.L23:
 272:Drivers/STM32F1xx_HAL_Driver/Src/stm32f1xx_hal_can.c ****     {
 344              		.loc 1 272 0
 345 00a6 A16A     		ldr	r1, [r4, #40]
 346 00a8 0129     		cmp	r1, #1
 347 00aa 02D1     		bne	.L24
 274:Drivers/STM32F1xx_HAL_Driver/Src/stm32f1xx_hal_can.c ****     }
 348              		.loc 1 274 0
 349 00ac 42F00802 		orr	r2, r2, #8
 350              	.LVL21:
 351 00b0 01E0     		b	.L25
 352              	.L24:
 278:Drivers/STM32F1xx_HAL_Driver/Src/stm32f1xx_hal_can.c ****     }
 353              		.loc 1 278 0
 354 00b2 22F00802 		bic	r2, r2, #8
 355              	.LVL22:
 356              	.L25:
 281:Drivers/STM32F1xx_HAL_Driver/Src/stm32f1xx_hal_can.c ****     {
 357              		.loc 1 281 0
 358 00b6 E16A     		ldr	r1, [r4, #44]
 359 00b8 0129     		cmp	r1, #1
 360 00ba 02D1     		bne	.L26
 283:Drivers/STM32F1xx_HAL_Driver/Src/stm32f1xx_hal_can.c ****     }
 361              		.loc 1 283 0
 362 00bc 42F00401 		orr	r1, r2, #4
 363              	.LVL23:
 364 00c0 01E0     		b	.L27
 365              	.LVL24:
 366              	.L26:
 287:Drivers/STM32F1xx_HAL_Driver/Src/stm32f1xx_hal_can.c ****     }
 367              		.loc 1 287 0
 368 00c2 22F00401 		bic	r1, r2, #4
 369              	.LVL25:
 370              	.L27:
 291:Drivers/STM32F1xx_HAL_Driver/Src/stm32f1xx_hal_can.c ****                CAN_MCR_TTCM |
 371              		.loc 1 291 0
 372 00c6 1A68     		ldr	r2, [r3]
ARM GAS  /tmp/ccRsISvi.s 			page 17


 373 00c8 22F0FC02 		bic	r2, r2, #252
 374 00cc 0A43     		orrs	r2, r2, r1
 375 00ce 1A60     		str	r2, [r3]
 301:Drivers/STM32F1xx_HAL_Driver/Src/stm32f1xx_hal_can.c ****                                               hcan->Init.SJW            |
 376              		.loc 1 301 0
 377 00d0 2168     		ldr	r1, [r4]
 378              	.LVL26:
 379 00d2 A268     		ldr	r2, [r4, #8]
 380 00d4 E368     		ldr	r3, [r4, #12]
 381 00d6 1A43     		orrs	r2, r2, r3
 382 00d8 2369     		ldr	r3, [r4, #16]
 383 00da 1A43     		orrs	r2, r2, r3
 384 00dc 6369     		ldr	r3, [r4, #20]
 385 00de 1A43     		orrs	r2, r2, r3
 386 00e0 6368     		ldr	r3, [r4, #4]
 387 00e2 013B     		subs	r3, r3, #1
 388 00e4 1343     		orrs	r3, r3, r2
 389 00e6 CB61     		str	r3, [r1, #28]
 308:Drivers/STM32F1xx_HAL_Driver/Src/stm32f1xx_hal_can.c **** 
 390              		.loc 1 308 0
 391 00e8 2268     		ldr	r2, [r4]
 392 00ea 1368     		ldr	r3, [r2]
 393 00ec 23F00103 		bic	r3, r3, #1
 394 00f0 1360     		str	r3, [r2]
 311:Drivers/STM32F1xx_HAL_Driver/Src/stm32f1xx_hal_can.c ****    
 395              		.loc 1 311 0
 396 00f2 FFF7FEFF 		bl	HAL_GetTick
 397              	.LVL27:
 398 00f6 0546     		mov	r5, r0
 399              	.LVL28:
 314:Drivers/STM32F1xx_HAL_Driver/Src/stm32f1xx_hal_can.c ****     {
 400              		.loc 1 314 0
 401 00f8 0BE0     		b	.L28
 402              	.LVL29:
 403              	.L29:
 316:Drivers/STM32F1xx_HAL_Driver/Src/stm32f1xx_hal_can.c ****       {
 404              		.loc 1 316 0
 405 00fa FFF7FEFF 		bl	HAL_GetTick
 406              	.LVL30:
 407 00fe 401B     		subs	r0, r0, r5
 408 0100 0A28     		cmp	r0, #10
 409 0102 06D9     		bls	.L28
 318:Drivers/STM32F1xx_HAL_Driver/Src/stm32f1xx_hal_can.c **** 
 410              		.loc 1 318 0
 411 0104 0320     		movs	r0, #3
 412 0106 84F83C00 		strb	r0, [r4, #60]
 321:Drivers/STM32F1xx_HAL_Driver/Src/stm32f1xx_hal_can.c **** 
 413              		.loc 1 321 0
 414 010a 0023     		movs	r3, #0
 415 010c 84F83D30 		strb	r3, [r4, #61]
 323:Drivers/STM32F1xx_HAL_Driver/Src/stm32f1xx_hal_can.c ****       }
 416              		.loc 1 323 0
 417 0110 38BD     		pop	{r3, r4, r5, pc}
 418              	.LVL31:
 419              	.L28:
 314:Drivers/STM32F1xx_HAL_Driver/Src/stm32f1xx_hal_can.c ****     {
 420              		.loc 1 314 0
ARM GAS  /tmp/ccRsISvi.s 			page 18


 421 0112 2368     		ldr	r3, [r4]
 422 0114 5A68     		ldr	r2, [r3, #4]
 423 0116 12F0010F 		tst	r2, #1
 424 011a EED1     		bne	.L29
 328:Drivers/STM32F1xx_HAL_Driver/Src/stm32f1xx_hal_can.c ****     {
 425              		.loc 1 328 0
 426 011c 5B68     		ldr	r3, [r3, #4]
 427 011e 13F0010F 		tst	r3, #1
 428 0122 03D0     		beq	.L34
 173:Drivers/STM32F1xx_HAL_Driver/Src/stm32f1xx_hal_can.c ****   uint32_t tickstart = 0U;
 429              		.loc 1 173 0
 430 0124 0023     		movs	r3, #0
 431 0126 02E0     		b	.L16
 432              	.LVL32:
 433              	.L32:
 434 0128 0023     		movs	r3, #0
 435 012a 00E0     		b	.L16
 436              	.LVL33:
 437              	.L34:
 330:Drivers/STM32F1xx_HAL_Driver/Src/stm32f1xx_hal_can.c ****     }
 438              		.loc 1 330 0
 439 012c 0123     		movs	r3, #1
 440              	.L16:
 441              	.LVL34:
 334:Drivers/STM32F1xx_HAL_Driver/Src/stm32f1xx_hal_can.c ****   {
 442              		.loc 1 334 0
 443 012e 2BB1     		cbz	r3, .L30
 337:Drivers/STM32F1xx_HAL_Driver/Src/stm32f1xx_hal_can.c ****     
 444              		.loc 1 337 0
 445 0130 0020     		movs	r0, #0
 446 0132 2064     		str	r0, [r4, #64]
 340:Drivers/STM32F1xx_HAL_Driver/Src/stm32f1xx_hal_can.c ****   
 447              		.loc 1 340 0
 448 0134 0123     		movs	r3, #1
 449              	.LVL35:
 450 0136 84F83C30 		strb	r3, [r4, #60]
 343:Drivers/STM32F1xx_HAL_Driver/Src/stm32f1xx_hal_can.c ****   }
 451              		.loc 1 343 0
 452 013a 38BD     		pop	{r3, r4, r5, pc}
 453              	.LVL36:
 454              	.L30:
 348:Drivers/STM32F1xx_HAL_Driver/Src/stm32f1xx_hal_can.c **** 
 455              		.loc 1 348 0
 456 013c 0423     		movs	r3, #4
 457              	.LVL37:
 458 013e 84F83C30 		strb	r3, [r4, #60]
 351:Drivers/STM32F1xx_HAL_Driver/Src/stm32f1xx_hal_can.c ****   }
 459              		.loc 1 351 0
 460 0142 0120     		movs	r0, #1
 461 0144 38BD     		pop	{r3, r4, r5, pc}
 462              	.LVL38:
 463              	.L31:
 464              	.LCFI3:
 465              		.cfi_def_cfa_offset 0
 466              		.cfi_restore 3
 467              		.cfi_restore 4
 468              		.cfi_restore 5
ARM GAS  /tmp/ccRsISvi.s 			page 19


 469              		.cfi_restore 14
 180:Drivers/STM32F1xx_HAL_Driver/Src/stm32f1xx_hal_can.c ****   }
 470              		.loc 1 180 0
 471 0146 0120     		movs	r0, #1
 472              	.LVL39:
 473 0148 7047     		bx	lr
 474              		.cfi_endproc
 475              	.LFE63:
 477 014a 00BF     		.section	.text.HAL_CAN_MspDeInit,"ax",%progbits
 478              		.align	2
 479              		.weak	HAL_CAN_MspDeInit
 480              		.thumb
 481              		.thumb_func
 483              	HAL_CAN_MspDeInit:
 484              	.LFB67:
 502:Drivers/STM32F1xx_HAL_Driver/Src/stm32f1xx_hal_can.c ****   /* Prevent unused argument(s) compilation warning */
 503:Drivers/STM32F1xx_HAL_Driver/Src/stm32f1xx_hal_can.c ****   UNUSED(hcan);
 504:Drivers/STM32F1xx_HAL_Driver/Src/stm32f1xx_hal_can.c ****   /* NOTE : This function Should not be modified, when the callback is needed,
 505:Drivers/STM32F1xx_HAL_Driver/Src/stm32f1xx_hal_can.c ****             the HAL_CAN_MspInit can be implemented in the user file
 506:Drivers/STM32F1xx_HAL_Driver/Src/stm32f1xx_hal_can.c ****    */ 
 507:Drivers/STM32F1xx_HAL_Driver/Src/stm32f1xx_hal_can.c **** }
 508:Drivers/STM32F1xx_HAL_Driver/Src/stm32f1xx_hal_can.c **** 
 509:Drivers/STM32F1xx_HAL_Driver/Src/stm32f1xx_hal_can.c **** /**
 510:Drivers/STM32F1xx_HAL_Driver/Src/stm32f1xx_hal_can.c ****   * @brief  DeInitializes the CAN MSP.
 511:Drivers/STM32F1xx_HAL_Driver/Src/stm32f1xx_hal_can.c ****   * @param  hcan: pointer to a CAN_HandleTypeDef structure that contains
 512:Drivers/STM32F1xx_HAL_Driver/Src/stm32f1xx_hal_can.c ****   *         the configuration information for the specified CAN.  
 513:Drivers/STM32F1xx_HAL_Driver/Src/stm32f1xx_hal_can.c ****   * @retval None
 514:Drivers/STM32F1xx_HAL_Driver/Src/stm32f1xx_hal_can.c ****   */
 515:Drivers/STM32F1xx_HAL_Driver/Src/stm32f1xx_hal_can.c **** __weak void HAL_CAN_MspDeInit(CAN_HandleTypeDef* hcan)
 516:Drivers/STM32F1xx_HAL_Driver/Src/stm32f1xx_hal_can.c **** {
 485              		.loc 1 516 0
 486              		.cfi_startproc
 487              		@ args = 0, pretend = 0, frame = 0
 488              		@ frame_needed = 0, uses_anonymous_args = 0
 489              		@ link register save eliminated.
 490              	.LVL40:
 491 0000 7047     		bx	lr
 492              		.cfi_endproc
 493              	.LFE67:
 495 0002 00BF     		.section	.text.HAL_CAN_DeInit,"ax",%progbits
 496              		.align	2
 497              		.global	HAL_CAN_DeInit
 498              		.thumb
 499              		.thumb_func
 501              	HAL_CAN_DeInit:
 502              	.LFB65:
 468:Drivers/STM32F1xx_HAL_Driver/Src/stm32f1xx_hal_can.c ****   /* Check CAN handle */
 503              		.loc 1 468 0
 504              		.cfi_startproc
 505              		@ args = 0, pretend = 0, frame = 0
 506              		@ frame_needed = 0, uses_anonymous_args = 0
 507              	.LVL41:
 470:Drivers/STM32F1xx_HAL_Driver/Src/stm32f1xx_hal_can.c ****   {
 508              		.loc 1 470 0
 509 0000 60B1     		cbz	r0, .L40
 468:Drivers/STM32F1xx_HAL_Driver/Src/stm32f1xx_hal_can.c ****   /* Check CAN handle */
 510              		.loc 1 468 0
ARM GAS  /tmp/ccRsISvi.s 			page 20


 511 0002 10B5     		push	{r4, lr}
 512              	.LCFI4:
 513              		.cfi_def_cfa_offset 8
 514              		.cfi_offset 4, -8
 515              		.cfi_offset 14, -4
 516 0004 0446     		mov	r4, r0
 479:Drivers/STM32F1xx_HAL_Driver/Src/stm32f1xx_hal_can.c ****   
 517              		.loc 1 479 0
 518 0006 0223     		movs	r3, #2
 519 0008 80F83C30 		strb	r3, [r0, #60]
 482:Drivers/STM32F1xx_HAL_Driver/Src/stm32f1xx_hal_can.c ****   
 520              		.loc 1 482 0
 521 000c FFF7FEFF 		bl	HAL_CAN_MspDeInit
 522              	.LVL42:
 485:Drivers/STM32F1xx_HAL_Driver/Src/stm32f1xx_hal_can.c **** 
 523              		.loc 1 485 0
 524 0010 0020     		movs	r0, #0
 525 0012 84F83C00 		strb	r0, [r4, #60]
 488:Drivers/STM32F1xx_HAL_Driver/Src/stm32f1xx_hal_can.c **** 
 526              		.loc 1 488 0
 527 0016 84F83D00 		strb	r0, [r4, #61]
 491:Drivers/STM32F1xx_HAL_Driver/Src/stm32f1xx_hal_can.c **** }
 528              		.loc 1 491 0
 529 001a 10BD     		pop	{r4, pc}
 530              	.LVL43:
 531              	.L40:
 532              	.LCFI5:
 533              		.cfi_def_cfa_offset 0
 534              		.cfi_restore 4
 535              		.cfi_restore 14
 472:Drivers/STM32F1xx_HAL_Driver/Src/stm32f1xx_hal_can.c ****   }
 536              		.loc 1 472 0
 537 001c 0120     		movs	r0, #1
 538              	.LVL44:
 539 001e 7047     		bx	lr
 540              		.cfi_endproc
 541              	.LFE65:
 543              		.section	.text.HAL_CAN_Transmit,"ax",%progbits
 544              		.align	2
 545              		.global	HAL_CAN_Transmit
 546              		.thumb
 547              		.thumb_func
 549              	HAL_CAN_Transmit:
 550              	.LFB68:
 517:Drivers/STM32F1xx_HAL_Driver/Src/stm32f1xx_hal_can.c ****   /* Prevent unused argument(s) compilation warning */
 518:Drivers/STM32F1xx_HAL_Driver/Src/stm32f1xx_hal_can.c ****   UNUSED(hcan);
 519:Drivers/STM32F1xx_HAL_Driver/Src/stm32f1xx_hal_can.c ****   /* NOTE : This function Should not be modified, when the callback is needed,
 520:Drivers/STM32F1xx_HAL_Driver/Src/stm32f1xx_hal_can.c ****             the HAL_CAN_MspDeInit can be implemented in the user file
 521:Drivers/STM32F1xx_HAL_Driver/Src/stm32f1xx_hal_can.c ****    */ 
 522:Drivers/STM32F1xx_HAL_Driver/Src/stm32f1xx_hal_can.c **** }
 523:Drivers/STM32F1xx_HAL_Driver/Src/stm32f1xx_hal_can.c **** 
 524:Drivers/STM32F1xx_HAL_Driver/Src/stm32f1xx_hal_can.c **** /**
 525:Drivers/STM32F1xx_HAL_Driver/Src/stm32f1xx_hal_can.c ****   * @}
 526:Drivers/STM32F1xx_HAL_Driver/Src/stm32f1xx_hal_can.c ****   */
 527:Drivers/STM32F1xx_HAL_Driver/Src/stm32f1xx_hal_can.c **** 
 528:Drivers/STM32F1xx_HAL_Driver/Src/stm32f1xx_hal_can.c **** /** @defgroup CAN_Exported_Functions_Group2 Input and Output operation functions
 529:Drivers/STM32F1xx_HAL_Driver/Src/stm32f1xx_hal_can.c ****   *  @brief    I/O operation functions 
ARM GAS  /tmp/ccRsISvi.s 			page 21


 530:Drivers/STM32F1xx_HAL_Driver/Src/stm32f1xx_hal_can.c ****   *
 531:Drivers/STM32F1xx_HAL_Driver/Src/stm32f1xx_hal_can.c **** @verbatim   
 532:Drivers/STM32F1xx_HAL_Driver/Src/stm32f1xx_hal_can.c ****   ==============================================================================
 533:Drivers/STM32F1xx_HAL_Driver/Src/stm32f1xx_hal_can.c ****                       ##### IO operation functions #####
 534:Drivers/STM32F1xx_HAL_Driver/Src/stm32f1xx_hal_can.c ****   ==============================================================================
 535:Drivers/STM32F1xx_HAL_Driver/Src/stm32f1xx_hal_can.c ****     [..]  This section provides functions allowing to:
 536:Drivers/STM32F1xx_HAL_Driver/Src/stm32f1xx_hal_can.c ****       (+) Transmit a CAN frame message.
 537:Drivers/STM32F1xx_HAL_Driver/Src/stm32f1xx_hal_can.c ****       (+) Receive a CAN frame message.
 538:Drivers/STM32F1xx_HAL_Driver/Src/stm32f1xx_hal_can.c ****       (+) Enter CAN peripheral in sleep mode. 
 539:Drivers/STM32F1xx_HAL_Driver/Src/stm32f1xx_hal_can.c ****       (+) Wake up the CAN peripheral from sleep mode.
 540:Drivers/STM32F1xx_HAL_Driver/Src/stm32f1xx_hal_can.c ****                
 541:Drivers/STM32F1xx_HAL_Driver/Src/stm32f1xx_hal_can.c **** @endverbatim
 542:Drivers/STM32F1xx_HAL_Driver/Src/stm32f1xx_hal_can.c ****   * @{
 543:Drivers/STM32F1xx_HAL_Driver/Src/stm32f1xx_hal_can.c ****   */
 544:Drivers/STM32F1xx_HAL_Driver/Src/stm32f1xx_hal_can.c **** 
 545:Drivers/STM32F1xx_HAL_Driver/Src/stm32f1xx_hal_can.c **** /**
 546:Drivers/STM32F1xx_HAL_Driver/Src/stm32f1xx_hal_can.c ****   * @brief  Initiates and transmits a CAN frame message.
 547:Drivers/STM32F1xx_HAL_Driver/Src/stm32f1xx_hal_can.c ****   * @param  hcan: pointer to a CAN_HandleTypeDef structure that contains
 548:Drivers/STM32F1xx_HAL_Driver/Src/stm32f1xx_hal_can.c ****   *         the configuration information for the specified CAN.  
 549:Drivers/STM32F1xx_HAL_Driver/Src/stm32f1xx_hal_can.c ****   * @param  Timeout: Specify Timeout value   
 550:Drivers/STM32F1xx_HAL_Driver/Src/stm32f1xx_hal_can.c ****   * @retval HAL status
 551:Drivers/STM32F1xx_HAL_Driver/Src/stm32f1xx_hal_can.c ****   */
 552:Drivers/STM32F1xx_HAL_Driver/Src/stm32f1xx_hal_can.c **** HAL_StatusTypeDef HAL_CAN_Transmit(CAN_HandleTypeDef* hcan, uint32_t Timeout)
 553:Drivers/STM32F1xx_HAL_Driver/Src/stm32f1xx_hal_can.c **** {
 551              		.loc 1 553 0
 552              		.cfi_startproc
 553              		@ args = 0, pretend = 0, frame = 0
 554              		@ frame_needed = 0, uses_anonymous_args = 0
 555              	.LVL45:
 556 0000 F8B5     		push	{r3, r4, r5, r6, r7, lr}
 557              	.LCFI6:
 558              		.cfi_def_cfa_offset 24
 559              		.cfi_offset 3, -24
 560              		.cfi_offset 4, -20
 561              		.cfi_offset 5, -16
 562              		.cfi_offset 6, -12
 563              		.cfi_offset 7, -8
 564              		.cfi_offset 14, -4
 565              	.LVL46:
 554:Drivers/STM32F1xx_HAL_Driver/Src/stm32f1xx_hal_can.c ****   uint32_t transmitmailbox = CAN_TXSTATUS_NOMAILBOX;
 555:Drivers/STM32F1xx_HAL_Driver/Src/stm32f1xx_hal_can.c ****   uint32_t tickstart = 0U;
 556:Drivers/STM32F1xx_HAL_Driver/Src/stm32f1xx_hal_can.c **** 
 557:Drivers/STM32F1xx_HAL_Driver/Src/stm32f1xx_hal_can.c ****   /* Check the parameters */
 558:Drivers/STM32F1xx_HAL_Driver/Src/stm32f1xx_hal_can.c ****   assert_param(IS_CAN_IDTYPE(hcan->pTxMsg->IDE));
 559:Drivers/STM32F1xx_HAL_Driver/Src/stm32f1xx_hal_can.c ****   assert_param(IS_CAN_RTR(hcan->pTxMsg->RTR));
 560:Drivers/STM32F1xx_HAL_Driver/Src/stm32f1xx_hal_can.c ****   assert_param(IS_CAN_DLC(hcan->pTxMsg->DLC));
 561:Drivers/STM32F1xx_HAL_Driver/Src/stm32f1xx_hal_can.c **** 
 562:Drivers/STM32F1xx_HAL_Driver/Src/stm32f1xx_hal_can.c ****   if(((hcan->Instance->TSR&CAN_TSR_TME0) == CAN_TSR_TME0) || \
 566              		.loc 1 562 0
 567 0002 0368     		ldr	r3, [r0]
 568 0004 9A68     		ldr	r2, [r3, #8]
 569 0006 12F0806F 		tst	r2, #67108864
 570 000a 08D1     		bne	.L44
 563:Drivers/STM32F1xx_HAL_Driver/Src/stm32f1xx_hal_can.c ****      ((hcan->Instance->TSR&CAN_TSR_TME1) == CAN_TSR_TME1) || \
 571              		.loc 1 563 0 discriminator 1
 572 000c 9A68     		ldr	r2, [r3, #8]
 562:Drivers/STM32F1xx_HAL_Driver/Src/stm32f1xx_hal_can.c ****      ((hcan->Instance->TSR&CAN_TSR_TME1) == CAN_TSR_TME1) || \
ARM GAS  /tmp/ccRsISvi.s 			page 22


 573              		.loc 1 562 0 discriminator 1
 574 000e 12F0006F 		tst	r2, #134217728
 575 0012 04D1     		bne	.L44
 564:Drivers/STM32F1xx_HAL_Driver/Src/stm32f1xx_hal_can.c ****      ((hcan->Instance->TSR&CAN_TSR_TME2) == CAN_TSR_TME2))
 576              		.loc 1 564 0
 577 0014 9A68     		ldr	r2, [r3, #8]
 563:Drivers/STM32F1xx_HAL_Driver/Src/stm32f1xx_hal_can.c ****      ((hcan->Instance->TSR&CAN_TSR_TME1) == CAN_TSR_TME1) || \
 578              		.loc 1 563 0
 579 0016 12F0805F 		tst	r2, #268435456
 580 001a 00F0ED80 		beq	.L45
 581              	.L44:
 565:Drivers/STM32F1xx_HAL_Driver/Src/stm32f1xx_hal_can.c ****   {
 566:Drivers/STM32F1xx_HAL_Driver/Src/stm32f1xx_hal_can.c ****     /* Process locked */
 567:Drivers/STM32F1xx_HAL_Driver/Src/stm32f1xx_hal_can.c ****     __HAL_LOCK(hcan);
 582              		.loc 1 567 0
 583 001e 90F83D20 		ldrb	r2, [r0, #61]	@ zero_extendqisi2
 584 0022 012A     		cmp	r2, #1
 585 0024 00F0ED80 		beq	.L71
 586              		.loc 1 567 0 is_stmt 0 discriminator 2
 587 0028 0122     		movs	r2, #1
 588 002a 80F83D20 		strb	r2, [r0, #61]
 568:Drivers/STM32F1xx_HAL_Driver/Src/stm32f1xx_hal_can.c **** 
 569:Drivers/STM32F1xx_HAL_Driver/Src/stm32f1xx_hal_can.c ****     /* Change CAN state */
 570:Drivers/STM32F1xx_HAL_Driver/Src/stm32f1xx_hal_can.c ****     switch(hcan->State)
 589              		.loc 1 570 0 is_stmt 1 discriminator 2
 590 002e 90F83C20 		ldrb	r2, [r0, #60]	@ zero_extendqisi2
 591 0032 D2B2     		uxtb	r2, r2
 592 0034 322A     		cmp	r2, #50
 593 0036 07D0     		beq	.L48
 594 0038 622A     		cmp	r2, #98
 595 003a 09D0     		beq	.L49
 596 003c 222A     		cmp	r2, #34
 597 003e 0BD1     		bne	.L74
 571:Drivers/STM32F1xx_HAL_Driver/Src/stm32f1xx_hal_can.c ****     {
 572:Drivers/STM32F1xx_HAL_Driver/Src/stm32f1xx_hal_can.c ****       case(HAL_CAN_STATE_BUSY_RX0):
 573:Drivers/STM32F1xx_HAL_Driver/Src/stm32f1xx_hal_can.c ****           hcan->State = HAL_CAN_STATE_BUSY_TX_RX0;
 598              		.loc 1 573 0
 599 0040 4222     		movs	r2, #66
 600 0042 80F83C20 		strb	r2, [r0, #60]
 574:Drivers/STM32F1xx_HAL_Driver/Src/stm32f1xx_hal_can.c ****           break;
 601              		.loc 1 574 0
 602 0046 0AE0     		b	.L51
 603              	.L48:
 575:Drivers/STM32F1xx_HAL_Driver/Src/stm32f1xx_hal_can.c ****       case(HAL_CAN_STATE_BUSY_RX1):
 576:Drivers/STM32F1xx_HAL_Driver/Src/stm32f1xx_hal_can.c ****           hcan->State = HAL_CAN_STATE_BUSY_TX_RX1;
 604              		.loc 1 576 0
 605 0048 5222     		movs	r2, #82
 606 004a 80F83C20 		strb	r2, [r0, #60]
 577:Drivers/STM32F1xx_HAL_Driver/Src/stm32f1xx_hal_can.c ****           break;
 607              		.loc 1 577 0
 608 004e 06E0     		b	.L51
 609              	.L49:
 578:Drivers/STM32F1xx_HAL_Driver/Src/stm32f1xx_hal_can.c ****       case(HAL_CAN_STATE_BUSY_RX0_RX1):
 579:Drivers/STM32F1xx_HAL_Driver/Src/stm32f1xx_hal_can.c ****           hcan->State = HAL_CAN_STATE_BUSY_TX_RX0_RX1;
 610              		.loc 1 579 0
 611 0050 7222     		movs	r2, #114
 612 0052 80F83C20 		strb	r2, [r0, #60]
ARM GAS  /tmp/ccRsISvi.s 			page 23


 580:Drivers/STM32F1xx_HAL_Driver/Src/stm32f1xx_hal_can.c ****           break;
 613              		.loc 1 580 0
 614 0056 02E0     		b	.L51
 615              	.L74:
 581:Drivers/STM32F1xx_HAL_Driver/Src/stm32f1xx_hal_can.c ****       default: /* HAL_CAN_STATE_READY */
 582:Drivers/STM32F1xx_HAL_Driver/Src/stm32f1xx_hal_can.c ****           hcan->State = HAL_CAN_STATE_BUSY_TX;
 616              		.loc 1 582 0
 617 0058 1222     		movs	r2, #18
 618 005a 80F83C20 		strb	r2, [r0, #60]
 619              	.L51:
 583:Drivers/STM32F1xx_HAL_Driver/Src/stm32f1xx_hal_can.c ****           break;
 584:Drivers/STM32F1xx_HAL_Driver/Src/stm32f1xx_hal_can.c ****     }
 585:Drivers/STM32F1xx_HAL_Driver/Src/stm32f1xx_hal_can.c **** 
 586:Drivers/STM32F1xx_HAL_Driver/Src/stm32f1xx_hal_can.c ****     /* Select one empty transmit mailbox */
 587:Drivers/STM32F1xx_HAL_Driver/Src/stm32f1xx_hal_can.c ****     if (HAL_IS_BIT_SET(hcan->Instance->TSR, CAN_TSR_TME0))
 620              		.loc 1 587 0
 621 005e 9A68     		ldr	r2, [r3, #8]
 622 0060 12F0806F 		tst	r2, #67108864
 623 0064 05D1     		bne	.L72
 588:Drivers/STM32F1xx_HAL_Driver/Src/stm32f1xx_hal_can.c ****     {
 589:Drivers/STM32F1xx_HAL_Driver/Src/stm32f1xx_hal_can.c ****       transmitmailbox = CAN_TXMAILBOX_0;
 590:Drivers/STM32F1xx_HAL_Driver/Src/stm32f1xx_hal_can.c ****     }
 591:Drivers/STM32F1xx_HAL_Driver/Src/stm32f1xx_hal_can.c ****     else if (HAL_IS_BIT_SET(hcan->Instance->TSR, CAN_TSR_TME1))
 624              		.loc 1 591 0
 625 0066 9A68     		ldr	r2, [r3, #8]
 626 0068 12F0006F 		tst	r2, #134217728
 627 006c 03D0     		beq	.L73
 592:Drivers/STM32F1xx_HAL_Driver/Src/stm32f1xx_hal_can.c ****     {
 593:Drivers/STM32F1xx_HAL_Driver/Src/stm32f1xx_hal_can.c ****       transmitmailbox = CAN_TXMAILBOX_1;
 628              		.loc 1 593 0
 629 006e 0125     		movs	r5, #1
 630 0070 02E0     		b	.L52
 631              	.L72:
 589:Drivers/STM32F1xx_HAL_Driver/Src/stm32f1xx_hal_can.c ****     }
 632              		.loc 1 589 0
 633 0072 0025     		movs	r5, #0
 634 0074 00E0     		b	.L52
 635              	.L73:
 594:Drivers/STM32F1xx_HAL_Driver/Src/stm32f1xx_hal_can.c ****     }
 595:Drivers/STM32F1xx_HAL_Driver/Src/stm32f1xx_hal_can.c ****     else
 596:Drivers/STM32F1xx_HAL_Driver/Src/stm32f1xx_hal_can.c ****     {
 597:Drivers/STM32F1xx_HAL_Driver/Src/stm32f1xx_hal_can.c ****       transmitmailbox = CAN_TXMAILBOX_2;
 636              		.loc 1 597 0
 637 0076 0225     		movs	r5, #2
 638              	.L52:
 639              	.LVL47:
 598:Drivers/STM32F1xx_HAL_Driver/Src/stm32f1xx_hal_can.c ****     }
 599:Drivers/STM32F1xx_HAL_Driver/Src/stm32f1xx_hal_can.c **** 
 600:Drivers/STM32F1xx_HAL_Driver/Src/stm32f1xx_hal_can.c ****     /* Set up the Id */
 601:Drivers/STM32F1xx_HAL_Driver/Src/stm32f1xx_hal_can.c ****     hcan->Instance->sTxMailBox[transmitmailbox].TIR &= CAN_TI0R_TXRQ;
 640              		.loc 1 601 0
 641 0078 05F11802 		add	r2, r5, #24
 642 007c 1201     		lsls	r2, r2, #4
 643 007e 9C58     		ldr	r4, [r3, r2]
 644 0080 04F00104 		and	r4, r4, #1
 645 0084 9C50     		str	r4, [r3, r2]
 602:Drivers/STM32F1xx_HAL_Driver/Src/stm32f1xx_hal_can.c ****     if (hcan->pTxMsg->IDE == CAN_ID_STD)
ARM GAS  /tmp/ccRsISvi.s 			page 24


 646              		.loc 1 602 0
 647 0086 036B     		ldr	r3, [r0, #48]
 648 0088 9A68     		ldr	r2, [r3, #8]
 649 008a 62B9     		cbnz	r2, .L53
 603:Drivers/STM32F1xx_HAL_Driver/Src/stm32f1xx_hal_can.c ****     {
 604:Drivers/STM32F1xx_HAL_Driver/Src/stm32f1xx_hal_can.c ****       assert_param(IS_CAN_STDID(hcan->pTxMsg->StdId));  
 605:Drivers/STM32F1xx_HAL_Driver/Src/stm32f1xx_hal_can.c ****       hcan->Instance->sTxMailBox[transmitmailbox].TIR |= ((hcan->pTxMsg->StdId << CAN_TI0R_STID_Pos
 650              		.loc 1 605 0
 651 008c 0668     		ldr	r6, [r0]
 652 008e 05F11804 		add	r4, r5, #24
 653 0092 2401     		lsls	r4, r4, #4
 654 0094 3759     		ldr	r7, [r6, r4]
 655 0096 D3F800E0 		ldr	lr, [r3]
 606:Drivers/STM32F1xx_HAL_Driver/Src/stm32f1xx_hal_can.c ****                                                            hcan->pTxMsg->RTR);
 656              		.loc 1 606 0
 657 009a DA68     		ldr	r2, [r3, #12]
 605:Drivers/STM32F1xx_HAL_Driver/Src/stm32f1xx_hal_can.c ****                                                            hcan->pTxMsg->RTR);
 658              		.loc 1 605 0
 659 009c 42EA4E53 		orr	r3, r2, lr, lsl #21
 660 00a0 3B43     		orrs	r3, r3, r7
 661 00a2 3351     		str	r3, [r6, r4]
 662 00a4 0EE0     		b	.L54
 663              	.L53:
 607:Drivers/STM32F1xx_HAL_Driver/Src/stm32f1xx_hal_can.c ****     }
 608:Drivers/STM32F1xx_HAL_Driver/Src/stm32f1xx_hal_can.c ****     else
 609:Drivers/STM32F1xx_HAL_Driver/Src/stm32f1xx_hal_can.c ****     {
 610:Drivers/STM32F1xx_HAL_Driver/Src/stm32f1xx_hal_can.c ****       assert_param(IS_CAN_EXTID(hcan->pTxMsg->ExtId));
 611:Drivers/STM32F1xx_HAL_Driver/Src/stm32f1xx_hal_can.c ****       hcan->Instance->sTxMailBox[transmitmailbox].TIR |= ((hcan->pTxMsg->ExtId << CAN_TI0R_EXID_Pos
 664              		.loc 1 611 0
 665 00a6 D0F800E0 		ldr	lr, [r0]
 666 00aa 05F11804 		add	r4, r5, #24
 667 00ae 2401     		lsls	r4, r4, #4
 668 00b0 5EF80470 		ldr	r7, [lr, r4]
 669 00b4 5E68     		ldr	r6, [r3, #4]
 670 00b6 42EAC602 		orr	r2, r2, r6, lsl #3
 612:Drivers/STM32F1xx_HAL_Driver/Src/stm32f1xx_hal_can.c ****                                                            hcan->pTxMsg->IDE |
 613:Drivers/STM32F1xx_HAL_Driver/Src/stm32f1xx_hal_can.c ****                                                            hcan->pTxMsg->RTR);
 671              		.loc 1 613 0
 672 00ba DB68     		ldr	r3, [r3, #12]
 612:Drivers/STM32F1xx_HAL_Driver/Src/stm32f1xx_hal_can.c ****                                                            hcan->pTxMsg->IDE |
 673              		.loc 1 612 0
 674 00bc 1A43     		orrs	r2, r2, r3
 611:Drivers/STM32F1xx_HAL_Driver/Src/stm32f1xx_hal_can.c ****                                                            hcan->pTxMsg->IDE |
 675              		.loc 1 611 0
 676 00be 3A43     		orrs	r2, r2, r7
 677 00c0 4EF80420 		str	r2, [lr, r4]
 678              	.L54:
 679 00c4 0E46     		mov	r6, r1
 680 00c6 0446     		mov	r4, r0
 614:Drivers/STM32F1xx_HAL_Driver/Src/stm32f1xx_hal_can.c ****     }
 615:Drivers/STM32F1xx_HAL_Driver/Src/stm32f1xx_hal_can.c **** 
 616:Drivers/STM32F1xx_HAL_Driver/Src/stm32f1xx_hal_can.c ****     /* Set up the DLC */
 617:Drivers/STM32F1xx_HAL_Driver/Src/stm32f1xx_hal_can.c ****     hcan->pTxMsg->DLC &= (uint8_t)0x0000000F;
 681              		.loc 1 617 0
 682 00c8 026B     		ldr	r2, [r0, #48]
 683 00ca 1369     		ldr	r3, [r2, #16]
 684 00cc 03F00F03 		and	r3, r3, #15
ARM GAS  /tmp/ccRsISvi.s 			page 25


 685 00d0 1361     		str	r3, [r2, #16]
 618:Drivers/STM32F1xx_HAL_Driver/Src/stm32f1xx_hal_can.c ****     hcan->Instance->sTxMailBox[transmitmailbox].TDTR &= 0xFFFFFFF0U;
 686              		.loc 1 618 0
 687 00d2 0368     		ldr	r3, [r0]
 688 00d4 05F11801 		add	r1, r5, #24
 689              	.LVL48:
 690 00d8 0901     		lsls	r1, r1, #4
 691 00da 0B44     		add	r3, r3, r1
 692 00dc 5A68     		ldr	r2, [r3, #4]
 693 00de 22F00F02 		bic	r2, r2, #15
 694 00e2 5A60     		str	r2, [r3, #4]
 619:Drivers/STM32F1xx_HAL_Driver/Src/stm32f1xx_hal_can.c ****     hcan->Instance->sTxMailBox[transmitmailbox].TDTR |= hcan->pTxMsg->DLC;
 695              		.loc 1 619 0
 696 00e4 0368     		ldr	r3, [r0]
 697 00e6 0B44     		add	r3, r3, r1
 698 00e8 5868     		ldr	r0, [r3, #4]
 699              	.LVL49:
 700 00ea 226B     		ldr	r2, [r4, #48]
 701 00ec 1269     		ldr	r2, [r2, #16]
 702 00ee 0243     		orrs	r2, r2, r0
 703 00f0 5A60     		str	r2, [r3, #4]
 620:Drivers/STM32F1xx_HAL_Driver/Src/stm32f1xx_hal_can.c **** 
 621:Drivers/STM32F1xx_HAL_Driver/Src/stm32f1xx_hal_can.c ****     /* Set up the data field */
 622:Drivers/STM32F1xx_HAL_Driver/Src/stm32f1xx_hal_can.c ****     WRITE_REG(hcan->Instance->sTxMailBox[transmitmailbox].TDLR, ((uint32_t)hcan->pTxMsg->Data[3] <<
 704              		.loc 1 622 0
 705 00f2 2268     		ldr	r2, [r4]
 706 00f4 206B     		ldr	r0, [r4, #48]
 707 00f6 C77D     		ldrb	r7, [r0, #23]	@ zero_extendqisi2
 708 00f8 837D     		ldrb	r3, [r0, #22]	@ zero_extendqisi2
 709 00fa 1B04     		lsls	r3, r3, #16
 710 00fc 43EA0763 		orr	r3, r3, r7, lsl #24
 711 0100 477D     		ldrb	r7, [r0, #21]	@ zero_extendqisi2
 712 0102 43EA0723 		orr	r3, r3, r7, lsl #8
 713 0106 007D     		ldrb	r0, [r0, #20]	@ zero_extendqisi2
 714 0108 0343     		orrs	r3, r3, r0
 715 010a 2801     		lsls	r0, r5, #4
 716 010c 0244     		add	r2, r2, r0
 717 010e C2F88831 		str	r3, [r2, #392]
 623:Drivers/STM32F1xx_HAL_Driver/Src/stm32f1xx_hal_can.c ****                                                                 ((uint32_t)hcan->pTxMsg->Data[2] <<
 624:Drivers/STM32F1xx_HAL_Driver/Src/stm32f1xx_hal_can.c ****                                                                 ((uint32_t)hcan->pTxMsg->Data[1] <<
 625:Drivers/STM32F1xx_HAL_Driver/Src/stm32f1xx_hal_can.c ****                                                                 ((uint32_t)hcan->pTxMsg->Data[0] <<
 626:Drivers/STM32F1xx_HAL_Driver/Src/stm32f1xx_hal_can.c ****     WRITE_REG(hcan->Instance->sTxMailBox[transmitmailbox].TDHR, ((uint32_t)hcan->pTxMsg->Data[7] <<
 718              		.loc 1 626 0
 719 0112 2268     		ldr	r2, [r4]
 720 0114 276B     		ldr	r7, [r4, #48]
 721 0116 97F81BE0 		ldrb	lr, [r7, #27]	@ zero_extendqisi2
 722 011a BB7E     		ldrb	r3, [r7, #26]	@ zero_extendqisi2
 723 011c 1B04     		lsls	r3, r3, #16
 724 011e 43EA0E63 		orr	r3, r3, lr, lsl #24
 725 0122 97F819E0 		ldrb	lr, [r7, #25]	@ zero_extendqisi2
 726 0126 43EA0E23 		orr	r3, r3, lr, lsl #8
 727 012a 3F7E     		ldrb	r7, [r7, #24]	@ zero_extendqisi2
 728 012c 3B43     		orrs	r3, r3, r7
 729 012e 0244     		add	r2, r2, r0
 730 0130 C2F88C31 		str	r3, [r2, #396]
 627:Drivers/STM32F1xx_HAL_Driver/Src/stm32f1xx_hal_can.c ****                                                                 ((uint32_t)hcan->pTxMsg->Data[6] <<
 628:Drivers/STM32F1xx_HAL_Driver/Src/stm32f1xx_hal_can.c ****                                                                 ((uint32_t)hcan->pTxMsg->Data[5] <<
ARM GAS  /tmp/ccRsISvi.s 			page 26


 629:Drivers/STM32F1xx_HAL_Driver/Src/stm32f1xx_hal_can.c ****                                                                 ((uint32_t)hcan->pTxMsg->Data[4] <<
 630:Drivers/STM32F1xx_HAL_Driver/Src/stm32f1xx_hal_can.c ****     /* Request transmission */
 631:Drivers/STM32F1xx_HAL_Driver/Src/stm32f1xx_hal_can.c ****     SET_BIT(hcan->Instance->sTxMailBox[transmitmailbox].TIR, CAN_TI0R_TXRQ);
 731              		.loc 1 631 0
 732 0134 2268     		ldr	r2, [r4]
 733 0136 5358     		ldr	r3, [r2, r1]
 734 0138 43F00103 		orr	r3, r3, #1
 735 013c 5350     		str	r3, [r2, r1]
 632:Drivers/STM32F1xx_HAL_Driver/Src/stm32f1xx_hal_can.c **** 
 633:Drivers/STM32F1xx_HAL_Driver/Src/stm32f1xx_hal_can.c ****     /* Get tick */
 634:Drivers/STM32F1xx_HAL_Driver/Src/stm32f1xx_hal_can.c ****     tickstart = HAL_GetTick();
 736              		.loc 1 634 0
 737 013e FFF7FEFF 		bl	HAL_GetTick
 738              	.LVL50:
 739 0142 0746     		mov	r7, r0
 740              	.LVL51:
 635:Drivers/STM32F1xx_HAL_Driver/Src/stm32f1xx_hal_can.c **** 
 636:Drivers/STM32F1xx_HAL_Driver/Src/stm32f1xx_hal_can.c ****     /* Check End of transmission flag */
 637:Drivers/STM32F1xx_HAL_Driver/Src/stm32f1xx_hal_can.c ****     while(!(__HAL_CAN_TRANSMIT_STATUS(hcan, transmitmailbox)))
 741              		.loc 1 637 0
 742 0144 20E0     		b	.L56
 743              	.LVL52:
 744              	.L65:
 638:Drivers/STM32F1xx_HAL_Driver/Src/stm32f1xx_hal_can.c ****     {
 639:Drivers/STM32F1xx_HAL_Driver/Src/stm32f1xx_hal_can.c ****       /* Check for the Timeout */
 640:Drivers/STM32F1xx_HAL_Driver/Src/stm32f1xx_hal_can.c ****       if(Timeout != HAL_MAX_DELAY)
 745              		.loc 1 640 0
 746 0146 B6F1FF3F 		cmp	r6, #-1
 747 014a 1DD0     		beq	.L56
 641:Drivers/STM32F1xx_HAL_Driver/Src/stm32f1xx_hal_can.c ****       {
 642:Drivers/STM32F1xx_HAL_Driver/Src/stm32f1xx_hal_can.c ****         if((Timeout == 0U) || ((HAL_GetTick()-tickstart) > Timeout))
 748              		.loc 1 642 0
 749 014c 26B1     		cbz	r6, .L57
 750              		.loc 1 642 0 is_stmt 0 discriminator 1
 751 014e FFF7FEFF 		bl	HAL_GetTick
 752              	.LVL53:
 753 0152 C01B     		subs	r0, r0, r7
 754 0154 B042     		cmp	r0, r6
 755 0156 17D9     		bls	.L56
 756              	.L57:
 643:Drivers/STM32F1xx_HAL_Driver/Src/stm32f1xx_hal_can.c ****         {
 644:Drivers/STM32F1xx_HAL_Driver/Src/stm32f1xx_hal_can.c ****           hcan->State = HAL_CAN_STATE_TIMEOUT;
 757              		.loc 1 644 0 is_stmt 1
 758 0158 0323     		movs	r3, #3
 759 015a 84F83C30 		strb	r3, [r4, #60]
 645:Drivers/STM32F1xx_HAL_Driver/Src/stm32f1xx_hal_can.c **** 
 646:Drivers/STM32F1xx_HAL_Driver/Src/stm32f1xx_hal_can.c ****           /* Cancel transmission */
 647:Drivers/STM32F1xx_HAL_Driver/Src/stm32f1xx_hal_can.c ****           __HAL_CAN_CANCEL_TRANSMIT(hcan, transmitmailbox);
 760              		.loc 1 647 0
 761 015e 1DB9     		cbnz	r5, .L58
 762              		.loc 1 647 0 is_stmt 0 discriminator 1
 763 0160 2368     		ldr	r3, [r4]
 764 0162 8022     		movs	r2, #128
 765 0164 9A60     		str	r2, [r3, #8]
 766 0166 0AE0     		b	.L59
 767              	.L58:
 768              		.loc 1 647 0 discriminator 2
ARM GAS  /tmp/ccRsISvi.s 			page 27


 769 0168 012D     		cmp	r5, #1
 770 016a 04D1     		bne	.L60
 771              		.loc 1 647 0 discriminator 3
 772 016c 2368     		ldr	r3, [r4]
 773 016e 4FF40042 		mov	r2, #32768
 774 0172 9A60     		str	r2, [r3, #8]
 775 0174 03E0     		b	.L59
 776              	.L60:
 777              		.loc 1 647 0 discriminator 4
 778 0176 2368     		ldr	r3, [r4]
 779 0178 4FF40002 		mov	r2, #8388608
 780 017c 9A60     		str	r2, [r3, #8]
 781              	.L59:
 648:Drivers/STM32F1xx_HAL_Driver/Src/stm32f1xx_hal_can.c **** 
 649:Drivers/STM32F1xx_HAL_Driver/Src/stm32f1xx_hal_can.c ****           /* Process unlocked */
 650:Drivers/STM32F1xx_HAL_Driver/Src/stm32f1xx_hal_can.c ****           __HAL_UNLOCK(hcan);
 782              		.loc 1 650 0 is_stmt 1
 783 017e 0023     		movs	r3, #0
 784 0180 84F83D30 		strb	r3, [r4, #61]
 651:Drivers/STM32F1xx_HAL_Driver/Src/stm32f1xx_hal_can.c ****           return HAL_TIMEOUT;
 785              		.loc 1 651 0
 786 0184 0320     		movs	r0, #3
 787 0186 F8BD     		pop	{r3, r4, r5, r6, r7, pc}
 788              	.LVL54:
 789              	.L56:
 637:Drivers/STM32F1xx_HAL_Driver/Src/stm32f1xx_hal_can.c ****     {
 790              		.loc 1 637 0
 791 0188 3DB9     		cbnz	r5, .L61
 637:Drivers/STM32F1xx_HAL_Driver/Src/stm32f1xx_hal_can.c ****     {
 792              		.loc 1 637 0 is_stmt 0 discriminator 1
 793 018a 2368     		ldr	r3, [r4]
 794 018c 9B68     		ldr	r3, [r3, #8]
 795 018e 1E4A     		ldr	r2, .L77
 796 0190 1340     		ands	r3, r3, r2
 797 0192 9B1A     		subs	r3, r3, r2
 798 0194 18BF     		it	ne
 799 0196 0123     		movne	r3, #1
 800 0198 10E0     		b	.L62
 801              	.L61:
 637:Drivers/STM32F1xx_HAL_Driver/Src/stm32f1xx_hal_can.c ****     {
 802              		.loc 1 637 0 discriminator 2
 803 019a 012D     		cmp	r5, #1
 804 019c 07D1     		bne	.L63
 637:Drivers/STM32F1xx_HAL_Driver/Src/stm32f1xx_hal_can.c ****     {
 805              		.loc 1 637 0 discriminator 4
 806 019e 2368     		ldr	r3, [r4]
 807 01a0 9B68     		ldr	r3, [r3, #8]
 808 01a2 1A4A     		ldr	r2, .L77+4
 809 01a4 1340     		ands	r3, r3, r2
 810 01a6 9B1A     		subs	r3, r3, r2
 811 01a8 18BF     		it	ne
 812 01aa 0123     		movne	r3, #1
 813 01ac 06E0     		b	.L62
 814              	.L63:
 637:Drivers/STM32F1xx_HAL_Driver/Src/stm32f1xx_hal_can.c ****     {
 815              		.loc 1 637 0 discriminator 5
 816 01ae 2368     		ldr	r3, [r4]
ARM GAS  /tmp/ccRsISvi.s 			page 28


 817 01b0 9B68     		ldr	r3, [r3, #8]
 818 01b2 174A     		ldr	r2, .L77+8
 819 01b4 1340     		ands	r3, r3, r2
 820 01b6 9B1A     		subs	r3, r3, r2
 821 01b8 18BF     		it	ne
 822 01ba 0123     		movne	r3, #1
 823              	.L62:
 637:Drivers/STM32F1xx_HAL_Driver/Src/stm32f1xx_hal_can.c ****     {
 824              		.loc 1 637 0 discriminator 8
 825 01bc 002B     		cmp	r3, #0
 826 01be C2D1     		bne	.L65
 652:Drivers/STM32F1xx_HAL_Driver/Src/stm32f1xx_hal_can.c ****         }
 653:Drivers/STM32F1xx_HAL_Driver/Src/stm32f1xx_hal_can.c ****       }
 654:Drivers/STM32F1xx_HAL_Driver/Src/stm32f1xx_hal_can.c ****     }
 655:Drivers/STM32F1xx_HAL_Driver/Src/stm32f1xx_hal_can.c ****     /* Change CAN state */
 656:Drivers/STM32F1xx_HAL_Driver/Src/stm32f1xx_hal_can.c ****     switch(hcan->State)
 827              		.loc 1 656 0 is_stmt 1
 828 01c0 94F83C30 		ldrb	r3, [r4, #60]	@ zero_extendqisi2
 829 01c4 DBB2     		uxtb	r3, r3
 830 01c6 522B     		cmp	r3, #82
 831 01c8 07D0     		beq	.L67
 832 01ca 722B     		cmp	r3, #114
 833 01cc 09D0     		beq	.L68
 834 01ce 422B     		cmp	r3, #66
 835 01d0 0BD1     		bne	.L75
 657:Drivers/STM32F1xx_HAL_Driver/Src/stm32f1xx_hal_can.c ****     {
 658:Drivers/STM32F1xx_HAL_Driver/Src/stm32f1xx_hal_can.c ****       case(HAL_CAN_STATE_BUSY_TX_RX0):
 659:Drivers/STM32F1xx_HAL_Driver/Src/stm32f1xx_hal_can.c ****           hcan->State = HAL_CAN_STATE_BUSY_RX0;
 836              		.loc 1 659 0
 837 01d2 2223     		movs	r3, #34
 838 01d4 84F83C30 		strb	r3, [r4, #60]
 660:Drivers/STM32F1xx_HAL_Driver/Src/stm32f1xx_hal_can.c ****           break;
 839              		.loc 1 660 0
 840 01d8 0AE0     		b	.L70
 841              	.L67:
 661:Drivers/STM32F1xx_HAL_Driver/Src/stm32f1xx_hal_can.c ****       case(HAL_CAN_STATE_BUSY_TX_RX1):
 662:Drivers/STM32F1xx_HAL_Driver/Src/stm32f1xx_hal_can.c ****           hcan->State = HAL_CAN_STATE_BUSY_RX1;
 842              		.loc 1 662 0
 843 01da 3223     		movs	r3, #50
 844 01dc 84F83C30 		strb	r3, [r4, #60]
 663:Drivers/STM32F1xx_HAL_Driver/Src/stm32f1xx_hal_can.c ****           break;
 845              		.loc 1 663 0
 846 01e0 06E0     		b	.L70
 847              	.L68:
 664:Drivers/STM32F1xx_HAL_Driver/Src/stm32f1xx_hal_can.c ****       case(HAL_CAN_STATE_BUSY_TX_RX0_RX1):
 665:Drivers/STM32F1xx_HAL_Driver/Src/stm32f1xx_hal_can.c ****           hcan->State = HAL_CAN_STATE_BUSY_RX0_RX1;
 848              		.loc 1 665 0
 849 01e2 6223     		movs	r3, #98
 850 01e4 84F83C30 		strb	r3, [r4, #60]
 666:Drivers/STM32F1xx_HAL_Driver/Src/stm32f1xx_hal_can.c ****           break;
 851              		.loc 1 666 0
 852 01e8 02E0     		b	.L70
 853              	.L75:
 667:Drivers/STM32F1xx_HAL_Driver/Src/stm32f1xx_hal_can.c ****       default: /* HAL_CAN_STATE_BUSY_TX */
 668:Drivers/STM32F1xx_HAL_Driver/Src/stm32f1xx_hal_can.c ****           hcan->State = HAL_CAN_STATE_READY;
 854              		.loc 1 668 0
 855 01ea 0123     		movs	r3, #1
ARM GAS  /tmp/ccRsISvi.s 			page 29


 856 01ec 84F83C30 		strb	r3, [r4, #60]
 857              	.L70:
 669:Drivers/STM32F1xx_HAL_Driver/Src/stm32f1xx_hal_can.c ****           break;
 670:Drivers/STM32F1xx_HAL_Driver/Src/stm32f1xx_hal_can.c ****     }
 671:Drivers/STM32F1xx_HAL_Driver/Src/stm32f1xx_hal_can.c **** 
 672:Drivers/STM32F1xx_HAL_Driver/Src/stm32f1xx_hal_can.c ****     /* Process unlocked */
 673:Drivers/STM32F1xx_HAL_Driver/Src/stm32f1xx_hal_can.c ****     __HAL_UNLOCK(hcan);
 858              		.loc 1 673 0
 859 01f0 0020     		movs	r0, #0
 860 01f2 84F83D00 		strb	r0, [r4, #61]
 674:Drivers/STM32F1xx_HAL_Driver/Src/stm32f1xx_hal_can.c **** 
 675:Drivers/STM32F1xx_HAL_Driver/Src/stm32f1xx_hal_can.c ****     /* Return function status */
 676:Drivers/STM32F1xx_HAL_Driver/Src/stm32f1xx_hal_can.c ****     return HAL_OK;
 861              		.loc 1 676 0
 862 01f6 F8BD     		pop	{r3, r4, r5, r6, r7, pc}
 863              	.LVL55:
 864              	.L45:
 677:Drivers/STM32F1xx_HAL_Driver/Src/stm32f1xx_hal_can.c ****   }
 678:Drivers/STM32F1xx_HAL_Driver/Src/stm32f1xx_hal_can.c ****   else
 679:Drivers/STM32F1xx_HAL_Driver/Src/stm32f1xx_hal_can.c ****   {
 680:Drivers/STM32F1xx_HAL_Driver/Src/stm32f1xx_hal_can.c ****     /* Change CAN state */
 681:Drivers/STM32F1xx_HAL_Driver/Src/stm32f1xx_hal_can.c ****     hcan->State = HAL_CAN_STATE_ERROR;
 865              		.loc 1 681 0
 866 01f8 0423     		movs	r3, #4
 867 01fa 80F83C30 		strb	r3, [r0, #60]
 682:Drivers/STM32F1xx_HAL_Driver/Src/stm32f1xx_hal_can.c **** 
 683:Drivers/STM32F1xx_HAL_Driver/Src/stm32f1xx_hal_can.c ****     /* Return function status */
 684:Drivers/STM32F1xx_HAL_Driver/Src/stm32f1xx_hal_can.c ****     return HAL_ERROR;
 868              		.loc 1 684 0
 869 01fe 0120     		movs	r0, #1
 870              	.LVL56:
 871 0200 F8BD     		pop	{r3, r4, r5, r6, r7, pc}
 872              	.LVL57:
 873              	.L71:
 567:Drivers/STM32F1xx_HAL_Driver/Src/stm32f1xx_hal_can.c **** 
 874              		.loc 1 567 0
 875 0202 0220     		movs	r0, #2
 876              	.LVL58:
 685:Drivers/STM32F1xx_HAL_Driver/Src/stm32f1xx_hal_can.c ****   }
 686:Drivers/STM32F1xx_HAL_Driver/Src/stm32f1xx_hal_can.c **** }
 877              		.loc 1 686 0
 878 0204 F8BD     		pop	{r3, r4, r5, r6, r7, pc}
 879              	.L78:
 880 0206 00BF     		.align	2
 881              	.L77:
 882 0208 01000004 		.word	67108865
 883 020c 00010008 		.word	134217984
 884 0210 00000110 		.word	268500992
 885              		.cfi_endproc
 886              	.LFE68:
 888              		.section	.text.HAL_CAN_Transmit_IT,"ax",%progbits
 889              		.align	2
 890              		.global	HAL_CAN_Transmit_IT
 891              		.thumb
 892              		.thumb_func
 894              	HAL_CAN_Transmit_IT:
 895              	.LFB69:
ARM GAS  /tmp/ccRsISvi.s 			page 30


 687:Drivers/STM32F1xx_HAL_Driver/Src/stm32f1xx_hal_can.c **** 
 688:Drivers/STM32F1xx_HAL_Driver/Src/stm32f1xx_hal_can.c **** /**
 689:Drivers/STM32F1xx_HAL_Driver/Src/stm32f1xx_hal_can.c ****   * @brief  Initiates and transmits a CAN frame message.
 690:Drivers/STM32F1xx_HAL_Driver/Src/stm32f1xx_hal_can.c ****   * @param  hcan: pointer to a CAN_HandleTypeDef structure that contains
 691:Drivers/STM32F1xx_HAL_Driver/Src/stm32f1xx_hal_can.c ****   *         the configuration information for the specified CAN.  
 692:Drivers/STM32F1xx_HAL_Driver/Src/stm32f1xx_hal_can.c ****   * @retval HAL status
 693:Drivers/STM32F1xx_HAL_Driver/Src/stm32f1xx_hal_can.c ****   */
 694:Drivers/STM32F1xx_HAL_Driver/Src/stm32f1xx_hal_can.c **** HAL_StatusTypeDef HAL_CAN_Transmit_IT(CAN_HandleTypeDef* hcan)
 695:Drivers/STM32F1xx_HAL_Driver/Src/stm32f1xx_hal_can.c **** {
 896              		.loc 1 695 0
 897              		.cfi_startproc
 898              		@ args = 0, pretend = 0, frame = 0
 899              		@ frame_needed = 0, uses_anonymous_args = 0
 900              		@ link register save eliminated.
 901              	.LVL59:
 696:Drivers/STM32F1xx_HAL_Driver/Src/stm32f1xx_hal_can.c ****   uint32_t transmitmailbox = CAN_TXSTATUS_NOMAILBOX;
 697:Drivers/STM32F1xx_HAL_Driver/Src/stm32f1xx_hal_can.c **** 
 698:Drivers/STM32F1xx_HAL_Driver/Src/stm32f1xx_hal_can.c ****   /* Check the parameters */
 699:Drivers/STM32F1xx_HAL_Driver/Src/stm32f1xx_hal_can.c ****   assert_param(IS_CAN_IDTYPE(hcan->pTxMsg->IDE));
 700:Drivers/STM32F1xx_HAL_Driver/Src/stm32f1xx_hal_can.c ****   assert_param(IS_CAN_RTR(hcan->pTxMsg->RTR));
 701:Drivers/STM32F1xx_HAL_Driver/Src/stm32f1xx_hal_can.c ****   assert_param(IS_CAN_DLC(hcan->pTxMsg->DLC));
 702:Drivers/STM32F1xx_HAL_Driver/Src/stm32f1xx_hal_can.c ****   
 703:Drivers/STM32F1xx_HAL_Driver/Src/stm32f1xx_hal_can.c ****   if(((hcan->Instance->TSR&CAN_TSR_TME0) == CAN_TSR_TME0) || \
 902              		.loc 1 703 0
 903 0000 0268     		ldr	r2, [r0]
 904 0002 9368     		ldr	r3, [r2, #8]
 905 0004 13F0806F 		tst	r3, #67108864
 906 0008 08D1     		bne	.L80
 704:Drivers/STM32F1xx_HAL_Driver/Src/stm32f1xx_hal_can.c ****      ((hcan->Instance->TSR&CAN_TSR_TME1) == CAN_TSR_TME1) || \
 907              		.loc 1 704 0 discriminator 1
 908 000a 9368     		ldr	r3, [r2, #8]
 703:Drivers/STM32F1xx_HAL_Driver/Src/stm32f1xx_hal_can.c ****      ((hcan->Instance->TSR&CAN_TSR_TME1) == CAN_TSR_TME1) || \
 909              		.loc 1 703 0 discriminator 1
 910 000c 13F0006F 		tst	r3, #134217728
 911 0010 04D1     		bne	.L80
 705:Drivers/STM32F1xx_HAL_Driver/Src/stm32f1xx_hal_can.c ****      ((hcan->Instance->TSR&CAN_TSR_TME2) == CAN_TSR_TME2))
 912              		.loc 1 705 0
 913 0012 9368     		ldr	r3, [r2, #8]
 704:Drivers/STM32F1xx_HAL_Driver/Src/stm32f1xx_hal_can.c ****      ((hcan->Instance->TSR&CAN_TSR_TME1) == CAN_TSR_TME1) || \
 914              		.loc 1 704 0
 915 0014 13F0805F 		tst	r3, #268435456
 916 0018 00F09880 		beq	.L81
 917              	.L80:
 706:Drivers/STM32F1xx_HAL_Driver/Src/stm32f1xx_hal_can.c ****   {
 707:Drivers/STM32F1xx_HAL_Driver/Src/stm32f1xx_hal_can.c ****     /* Process Locked */
 708:Drivers/STM32F1xx_HAL_Driver/Src/stm32f1xx_hal_can.c ****     __HAL_LOCK(hcan);
 918              		.loc 1 708 0
 919 001c 90F83D30 		ldrb	r3, [r0, #61]	@ zero_extendqisi2
 920 0020 012B     		cmp	r3, #1
 921 0022 00F09880 		beq	.L91
 695:Drivers/STM32F1xx_HAL_Driver/Src/stm32f1xx_hal_can.c ****   uint32_t transmitmailbox = CAN_TXSTATUS_NOMAILBOX;
 922              		.loc 1 695 0 discriminator 2
 923 0026 F0B4     		push	{r4, r5, r6, r7}
 924              	.LCFI7:
 925              		.cfi_def_cfa_offset 16
 926              		.cfi_offset 4, -16
 927              		.cfi_offset 5, -12
ARM GAS  /tmp/ccRsISvi.s 			page 31


 928              		.cfi_offset 6, -8
 929              		.cfi_offset 7, -4
 930              		.loc 1 708 0 discriminator 2
 931 0028 0123     		movs	r3, #1
 932 002a 80F83D30 		strb	r3, [r0, #61]
 709:Drivers/STM32F1xx_HAL_Driver/Src/stm32f1xx_hal_can.c ****     
 710:Drivers/STM32F1xx_HAL_Driver/Src/stm32f1xx_hal_can.c ****     /* Select one empty transmit mailbox */
 711:Drivers/STM32F1xx_HAL_Driver/Src/stm32f1xx_hal_can.c ****     if(HAL_IS_BIT_SET(hcan->Instance->TSR, CAN_TSR_TME0))
 933              		.loc 1 711 0 discriminator 2
 934 002e 9368     		ldr	r3, [r2, #8]
 935 0030 13F0806F 		tst	r3, #67108864
 936 0034 05D1     		bne	.L92
 712:Drivers/STM32F1xx_HAL_Driver/Src/stm32f1xx_hal_can.c ****     {
 713:Drivers/STM32F1xx_HAL_Driver/Src/stm32f1xx_hal_can.c ****       transmitmailbox = CAN_TXMAILBOX_0;
 714:Drivers/STM32F1xx_HAL_Driver/Src/stm32f1xx_hal_can.c ****     }
 715:Drivers/STM32F1xx_HAL_Driver/Src/stm32f1xx_hal_can.c ****     else if(HAL_IS_BIT_SET(hcan->Instance->TSR, CAN_TSR_TME1))
 937              		.loc 1 715 0
 938 0036 9368     		ldr	r3, [r2, #8]
 939 0038 13F0006F 		tst	r3, #134217728
 940 003c 03D0     		beq	.L93
 716:Drivers/STM32F1xx_HAL_Driver/Src/stm32f1xx_hal_can.c ****     {
 717:Drivers/STM32F1xx_HAL_Driver/Src/stm32f1xx_hal_can.c ****       transmitmailbox = CAN_TXMAILBOX_1;
 941              		.loc 1 717 0
 942 003e 0123     		movs	r3, #1
 943 0040 02E0     		b	.L83
 944              	.L92:
 713:Drivers/STM32F1xx_HAL_Driver/Src/stm32f1xx_hal_can.c ****     }
 945              		.loc 1 713 0
 946 0042 0023     		movs	r3, #0
 947 0044 00E0     		b	.L83
 948              	.L93:
 718:Drivers/STM32F1xx_HAL_Driver/Src/stm32f1xx_hal_can.c ****     }
 719:Drivers/STM32F1xx_HAL_Driver/Src/stm32f1xx_hal_can.c ****     else
 720:Drivers/STM32F1xx_HAL_Driver/Src/stm32f1xx_hal_can.c ****     {
 721:Drivers/STM32F1xx_HAL_Driver/Src/stm32f1xx_hal_can.c ****       transmitmailbox = CAN_TXMAILBOX_2;
 949              		.loc 1 721 0
 950 0046 0223     		movs	r3, #2
 951              	.L83:
 952              	.LVL60:
 722:Drivers/STM32F1xx_HAL_Driver/Src/stm32f1xx_hal_can.c ****     }
 723:Drivers/STM32F1xx_HAL_Driver/Src/stm32f1xx_hal_can.c **** 
 724:Drivers/STM32F1xx_HAL_Driver/Src/stm32f1xx_hal_can.c ****     /* Set up the Id */
 725:Drivers/STM32F1xx_HAL_Driver/Src/stm32f1xx_hal_can.c ****     hcan->Instance->sTxMailBox[transmitmailbox].TIR &= CAN_TI0R_TXRQ;
 953              		.loc 1 725 0
 954 0048 03F11801 		add	r1, r3, #24
 955 004c 0901     		lsls	r1, r1, #4
 956 004e 5458     		ldr	r4, [r2, r1]
 957 0050 04F00104 		and	r4, r4, #1
 958 0054 5450     		str	r4, [r2, r1]
 726:Drivers/STM32F1xx_HAL_Driver/Src/stm32f1xx_hal_can.c ****     if(hcan->pTxMsg->IDE == CAN_ID_STD)
 959              		.loc 1 726 0
 960 0056 026B     		ldr	r2, [r0, #48]
 961 0058 9168     		ldr	r1, [r2, #8]
 962 005a 59B9     		cbnz	r1, .L84
 727:Drivers/STM32F1xx_HAL_Driver/Src/stm32f1xx_hal_can.c ****     {
 728:Drivers/STM32F1xx_HAL_Driver/Src/stm32f1xx_hal_can.c ****       assert_param(IS_CAN_STDID(hcan->pTxMsg->StdId));
 729:Drivers/STM32F1xx_HAL_Driver/Src/stm32f1xx_hal_can.c ****       hcan->Instance->sTxMailBox[transmitmailbox].TIR |= ((hcan->pTxMsg->StdId << CAN_TI0R_STID_Pos
ARM GAS  /tmp/ccRsISvi.s 			page 32


 963              		.loc 1 729 0
 964 005c 0568     		ldr	r5, [r0]
 965 005e 03F11804 		add	r4, r3, #24
 966 0062 2401     		lsls	r4, r4, #4
 967 0064 2E59     		ldr	r6, [r5, r4]
 968 0066 1768     		ldr	r7, [r2]
 730:Drivers/STM32F1xx_HAL_Driver/Src/stm32f1xx_hal_can.c ****                                                            hcan->pTxMsg->RTR);
 969              		.loc 1 730 0
 970 0068 D168     		ldr	r1, [r2, #12]
 729:Drivers/STM32F1xx_HAL_Driver/Src/stm32f1xx_hal_can.c ****                                                            hcan->pTxMsg->RTR);
 971              		.loc 1 729 0
 972 006a 41EA4752 		orr	r2, r1, r7, lsl #21
 973 006e 3243     		orrs	r2, r2, r6
 974 0070 2A51     		str	r2, [r5, r4]
 975 0072 0BE0     		b	.L85
 976              	.L84:
 731:Drivers/STM32F1xx_HAL_Driver/Src/stm32f1xx_hal_can.c ****     }
 732:Drivers/STM32F1xx_HAL_Driver/Src/stm32f1xx_hal_can.c ****     else
 733:Drivers/STM32F1xx_HAL_Driver/Src/stm32f1xx_hal_can.c ****     {
 734:Drivers/STM32F1xx_HAL_Driver/Src/stm32f1xx_hal_can.c ****       assert_param(IS_CAN_EXTID(hcan->pTxMsg->ExtId));
 735:Drivers/STM32F1xx_HAL_Driver/Src/stm32f1xx_hal_can.c ****       hcan->Instance->sTxMailBox[transmitmailbox].TIR |= ((hcan->pTxMsg->ExtId << CAN_TI0R_EXID_Pos
 977              		.loc 1 735 0
 978 0074 0568     		ldr	r5, [r0]
 979 0076 03F11804 		add	r4, r3, #24
 980 007a 2401     		lsls	r4, r4, #4
 981 007c 2E59     		ldr	r6, [r5, r4]
 982 007e 5768     		ldr	r7, [r2, #4]
 983 0080 41EAC701 		orr	r1, r1, r7, lsl #3
 736:Drivers/STM32F1xx_HAL_Driver/Src/stm32f1xx_hal_can.c ****                                                            hcan->pTxMsg->IDE |
 737:Drivers/STM32F1xx_HAL_Driver/Src/stm32f1xx_hal_can.c ****                                                            hcan->pTxMsg->RTR);
 984              		.loc 1 737 0
 985 0084 D268     		ldr	r2, [r2, #12]
 736:Drivers/STM32F1xx_HAL_Driver/Src/stm32f1xx_hal_can.c ****                                                            hcan->pTxMsg->IDE |
 986              		.loc 1 736 0
 987 0086 1143     		orrs	r1, r1, r2
 735:Drivers/STM32F1xx_HAL_Driver/Src/stm32f1xx_hal_can.c ****                                                            hcan->pTxMsg->IDE |
 988              		.loc 1 735 0
 989 0088 3143     		orrs	r1, r1, r6
 990 008a 2951     		str	r1, [r5, r4]
 991              	.L85:
 738:Drivers/STM32F1xx_HAL_Driver/Src/stm32f1xx_hal_can.c ****     }
 739:Drivers/STM32F1xx_HAL_Driver/Src/stm32f1xx_hal_can.c **** 
 740:Drivers/STM32F1xx_HAL_Driver/Src/stm32f1xx_hal_can.c ****     /* Set up the DLC */
 741:Drivers/STM32F1xx_HAL_Driver/Src/stm32f1xx_hal_can.c ****     hcan->pTxMsg->DLC &= (uint8_t)0x0000000FU;
 992              		.loc 1 741 0
 993 008c 016B     		ldr	r1, [r0, #48]
 994 008e 0A69     		ldr	r2, [r1, #16]
 995 0090 02F00F02 		and	r2, r2, #15
 996 0094 0A61     		str	r2, [r1, #16]
 742:Drivers/STM32F1xx_HAL_Driver/Src/stm32f1xx_hal_can.c ****     hcan->Instance->sTxMailBox[transmitmailbox].TDTR &= 0xFFFFFFF0U;
 997              		.loc 1 742 0
 998 0096 0168     		ldr	r1, [r0]
 999 0098 03F11802 		add	r2, r3, #24
 1000 009c 1201     		lsls	r2, r2, #4
 1001 009e 1144     		add	r1, r1, r2
 1002 00a0 4C68     		ldr	r4, [r1, #4]
 1003 00a2 24F00F04 		bic	r4, r4, #15
ARM GAS  /tmp/ccRsISvi.s 			page 33


 1004 00a6 4C60     		str	r4, [r1, #4]
 743:Drivers/STM32F1xx_HAL_Driver/Src/stm32f1xx_hal_can.c ****     hcan->Instance->sTxMailBox[transmitmailbox].TDTR |= hcan->pTxMsg->DLC;
 1005              		.loc 1 743 0
 1006 00a8 0168     		ldr	r1, [r0]
 1007 00aa 0A44     		add	r2, r2, r1
 1008 00ac 5468     		ldr	r4, [r2, #4]
 1009 00ae 016B     		ldr	r1, [r0, #48]
 1010 00b0 0969     		ldr	r1, [r1, #16]
 1011 00b2 2143     		orrs	r1, r1, r4
 1012 00b4 5160     		str	r1, [r2, #4]
 744:Drivers/STM32F1xx_HAL_Driver/Src/stm32f1xx_hal_can.c **** 
 745:Drivers/STM32F1xx_HAL_Driver/Src/stm32f1xx_hal_can.c ****     /* Set up the data field */
 746:Drivers/STM32F1xx_HAL_Driver/Src/stm32f1xx_hal_can.c ****     WRITE_REG(hcan->Instance->sTxMailBox[transmitmailbox].TDLR, ((uint32_t)hcan->pTxMsg->Data[3U] <
 1013              		.loc 1 746 0
 1014 00b6 0468     		ldr	r4, [r0]
 1015 00b8 016B     		ldr	r1, [r0, #48]
 1016 00ba CD7D     		ldrb	r5, [r1, #23]	@ zero_extendqisi2
 1017 00bc 8A7D     		ldrb	r2, [r1, #22]	@ zero_extendqisi2
 1018 00be 1204     		lsls	r2, r2, #16
 1019 00c0 42EA0562 		orr	r2, r2, r5, lsl #24
 1020 00c4 4D7D     		ldrb	r5, [r1, #21]	@ zero_extendqisi2
 1021 00c6 42EA0522 		orr	r2, r2, r5, lsl #8
 1022 00ca 097D     		ldrb	r1, [r1, #20]	@ zero_extendqisi2
 1023 00cc 0A43     		orrs	r2, r2, r1
 1024 00ce 1901     		lsls	r1, r3, #4
 1025 00d0 0C44     		add	r4, r4, r1
 1026 00d2 C4F88821 		str	r2, [r4, #392]
 747:Drivers/STM32F1xx_HAL_Driver/Src/stm32f1xx_hal_can.c ****                                                                 ((uint32_t)hcan->pTxMsg->Data[2U] <
 748:Drivers/STM32F1xx_HAL_Driver/Src/stm32f1xx_hal_can.c ****                                                                 ((uint32_t)hcan->pTxMsg->Data[1U] <
 749:Drivers/STM32F1xx_HAL_Driver/Src/stm32f1xx_hal_can.c ****                                                                 ((uint32_t)hcan->pTxMsg->Data[0U] <
 750:Drivers/STM32F1xx_HAL_Driver/Src/stm32f1xx_hal_can.c ****     WRITE_REG(hcan->Instance->sTxMailBox[transmitmailbox].TDHR, ((uint32_t)hcan->pTxMsg->Data[7U] <
 1027              		.loc 1 750 0
 1028 00d6 0468     		ldr	r4, [r0]
 1029 00d8 056B     		ldr	r5, [r0, #48]
 1030 00da EE7E     		ldrb	r6, [r5, #27]	@ zero_extendqisi2
 1031 00dc AA7E     		ldrb	r2, [r5, #26]	@ zero_extendqisi2
 1032 00de 1204     		lsls	r2, r2, #16
 1033 00e0 42EA0662 		orr	r2, r2, r6, lsl #24
 1034 00e4 6E7E     		ldrb	r6, [r5, #25]	@ zero_extendqisi2
 1035 00e6 42EA0622 		orr	r2, r2, r6, lsl #8
 1036 00ea 2D7E     		ldrb	r5, [r5, #24]	@ zero_extendqisi2
 1037 00ec 2A43     		orrs	r2, r2, r5
 1038 00ee 2144     		add	r1, r1, r4
 1039 00f0 C1F88C21 		str	r2, [r1, #396]
 751:Drivers/STM32F1xx_HAL_Driver/Src/stm32f1xx_hal_can.c ****                                                                 ((uint32_t)hcan->pTxMsg->Data[6U] <
 752:Drivers/STM32F1xx_HAL_Driver/Src/stm32f1xx_hal_can.c ****                                                                 ((uint32_t)hcan->pTxMsg->Data[5U] <
 753:Drivers/STM32F1xx_HAL_Driver/Src/stm32f1xx_hal_can.c ****                                                                 ((uint32_t)hcan->pTxMsg->Data[4U] <
 754:Drivers/STM32F1xx_HAL_Driver/Src/stm32f1xx_hal_can.c **** 
 755:Drivers/STM32F1xx_HAL_Driver/Src/stm32f1xx_hal_can.c ****     /* Change CAN state */
 756:Drivers/STM32F1xx_HAL_Driver/Src/stm32f1xx_hal_can.c ****     switch(hcan->State)
 1040              		.loc 1 756 0
 1041 00f4 90F83C20 		ldrb	r2, [r0, #60]	@ zero_extendqisi2
 1042 00f8 D2B2     		uxtb	r2, r2
 1043 00fa 322A     		cmp	r2, #50
 1044 00fc 07D0     		beq	.L87
 1045 00fe 622A     		cmp	r2, #98
 1046 0100 09D0     		beq	.L88
ARM GAS  /tmp/ccRsISvi.s 			page 34


 1047 0102 222A     		cmp	r2, #34
 1048 0104 0BD1     		bne	.L94
 757:Drivers/STM32F1xx_HAL_Driver/Src/stm32f1xx_hal_can.c ****     {
 758:Drivers/STM32F1xx_HAL_Driver/Src/stm32f1xx_hal_can.c ****       case(HAL_CAN_STATE_BUSY_RX0):
 759:Drivers/STM32F1xx_HAL_Driver/Src/stm32f1xx_hal_can.c ****           hcan->State = HAL_CAN_STATE_BUSY_TX_RX0;
 1049              		.loc 1 759 0
 1050 0106 4222     		movs	r2, #66
 1051 0108 80F83C20 		strb	r2, [r0, #60]
 760:Drivers/STM32F1xx_HAL_Driver/Src/stm32f1xx_hal_can.c ****           break;
 1052              		.loc 1 760 0
 1053 010c 0AE0     		b	.L90
 1054              	.L87:
 761:Drivers/STM32F1xx_HAL_Driver/Src/stm32f1xx_hal_can.c ****       case(HAL_CAN_STATE_BUSY_RX1):
 762:Drivers/STM32F1xx_HAL_Driver/Src/stm32f1xx_hal_can.c ****           hcan->State = HAL_CAN_STATE_BUSY_TX_RX1;
 1055              		.loc 1 762 0
 1056 010e 5222     		movs	r2, #82
 1057 0110 80F83C20 		strb	r2, [r0, #60]
 763:Drivers/STM32F1xx_HAL_Driver/Src/stm32f1xx_hal_can.c ****           break;
 1058              		.loc 1 763 0
 1059 0114 06E0     		b	.L90
 1060              	.L88:
 764:Drivers/STM32F1xx_HAL_Driver/Src/stm32f1xx_hal_can.c ****       case(HAL_CAN_STATE_BUSY_RX0_RX1):
 765:Drivers/STM32F1xx_HAL_Driver/Src/stm32f1xx_hal_can.c ****           hcan->State = HAL_CAN_STATE_BUSY_TX_RX0_RX1;
 1061              		.loc 1 765 0
 1062 0116 7222     		movs	r2, #114
 1063 0118 80F83C20 		strb	r2, [r0, #60]
 766:Drivers/STM32F1xx_HAL_Driver/Src/stm32f1xx_hal_can.c ****           break;
 1064              		.loc 1 766 0
 1065 011c 02E0     		b	.L90
 1066              	.L94:
 767:Drivers/STM32F1xx_HAL_Driver/Src/stm32f1xx_hal_can.c ****       default: /* HAL_CAN_STATE_READY */
 768:Drivers/STM32F1xx_HAL_Driver/Src/stm32f1xx_hal_can.c ****           hcan->State = HAL_CAN_STATE_BUSY_TX;
 1067              		.loc 1 768 0
 1068 011e 1222     		movs	r2, #18
 1069 0120 80F83C20 		strb	r2, [r0, #60]
 1070              	.L90:
 769:Drivers/STM32F1xx_HAL_Driver/Src/stm32f1xx_hal_can.c ****           break;
 770:Drivers/STM32F1xx_HAL_Driver/Src/stm32f1xx_hal_can.c ****     }
 771:Drivers/STM32F1xx_HAL_Driver/Src/stm32f1xx_hal_can.c **** 
 772:Drivers/STM32F1xx_HAL_Driver/Src/stm32f1xx_hal_can.c ****     /* Set CAN error code to none */
 773:Drivers/STM32F1xx_HAL_Driver/Src/stm32f1xx_hal_can.c ****     hcan->ErrorCode = HAL_CAN_ERROR_NONE;
 1071              		.loc 1 773 0
 1072 0124 0022     		movs	r2, #0
 1073 0126 0264     		str	r2, [r0, #64]
 774:Drivers/STM32F1xx_HAL_Driver/Src/stm32f1xx_hal_can.c **** 
 775:Drivers/STM32F1xx_HAL_Driver/Src/stm32f1xx_hal_can.c ****     /* Process Unlocked */
 776:Drivers/STM32F1xx_HAL_Driver/Src/stm32f1xx_hal_can.c ****     __HAL_UNLOCK(hcan);
 1074              		.loc 1 776 0
 1075 0128 80F83D20 		strb	r2, [r0, #61]
 777:Drivers/STM32F1xx_HAL_Driver/Src/stm32f1xx_hal_can.c **** 
 778:Drivers/STM32F1xx_HAL_Driver/Src/stm32f1xx_hal_can.c ****     /* Request transmission */
 779:Drivers/STM32F1xx_HAL_Driver/Src/stm32f1xx_hal_can.c ****     hcan->Instance->sTxMailBox[transmitmailbox].TIR |= CAN_TI0R_TXRQ;
 1076              		.loc 1 779 0
 1077 012c 0468     		ldr	r4, [r0]
 1078 012e 1833     		adds	r3, r3, #24
 1079              	.LVL61:
 1080 0130 1B01     		lsls	r3, r3, #4
ARM GAS  /tmp/ccRsISvi.s 			page 35


 1081              	.LVL62:
 1082 0132 E158     		ldr	r1, [r4, r3]
 1083 0134 41F00101 		orr	r1, r1, #1
 1084 0138 E150     		str	r1, [r4, r3]
 780:Drivers/STM32F1xx_HAL_Driver/Src/stm32f1xx_hal_can.c **** 
 781:Drivers/STM32F1xx_HAL_Driver/Src/stm32f1xx_hal_can.c ****     /* Enable interrupts: */
 782:Drivers/STM32F1xx_HAL_Driver/Src/stm32f1xx_hal_can.c ****     /*  - Enable Error warning Interrupt */
 783:Drivers/STM32F1xx_HAL_Driver/Src/stm32f1xx_hal_can.c ****     /*  - Enable Error passive Interrupt */
 784:Drivers/STM32F1xx_HAL_Driver/Src/stm32f1xx_hal_can.c ****     /*  - Enable Bus-off Interrupt */
 785:Drivers/STM32F1xx_HAL_Driver/Src/stm32f1xx_hal_can.c ****     /*  - Enable Last error code Interrupt */
 786:Drivers/STM32F1xx_HAL_Driver/Src/stm32f1xx_hal_can.c ****     /*  - Enable Error Interrupt */
 787:Drivers/STM32F1xx_HAL_Driver/Src/stm32f1xx_hal_can.c ****     /*  - Enable Transmit mailbox empty Interrupt */
 788:Drivers/STM32F1xx_HAL_Driver/Src/stm32f1xx_hal_can.c ****     __HAL_CAN_ENABLE_IT(hcan, CAN_IT_EWG |
 1085              		.loc 1 788 0
 1086 013a 0168     		ldr	r1, [r0]
 1087 013c 4B69     		ldr	r3, [r1, #20]
 1088 013e 43F40F43 		orr	r3, r3, #36608
 1089 0142 43F00103 		orr	r3, r3, #1
 1090 0146 4B61     		str	r3, [r1, #20]
 789:Drivers/STM32F1xx_HAL_Driver/Src/stm32f1xx_hal_can.c ****                               CAN_IT_EPV |
 790:Drivers/STM32F1xx_HAL_Driver/Src/stm32f1xx_hal_can.c ****                               CAN_IT_BOF |
 791:Drivers/STM32F1xx_HAL_Driver/Src/stm32f1xx_hal_can.c ****                               CAN_IT_LEC |
 792:Drivers/STM32F1xx_HAL_Driver/Src/stm32f1xx_hal_can.c ****                               CAN_IT_ERR |
 793:Drivers/STM32F1xx_HAL_Driver/Src/stm32f1xx_hal_can.c ****                               CAN_IT_TME  );
 794:Drivers/STM32F1xx_HAL_Driver/Src/stm32f1xx_hal_can.c ****   }
 795:Drivers/STM32F1xx_HAL_Driver/Src/stm32f1xx_hal_can.c ****   else
 796:Drivers/STM32F1xx_HAL_Driver/Src/stm32f1xx_hal_can.c ****   {
 797:Drivers/STM32F1xx_HAL_Driver/Src/stm32f1xx_hal_can.c ****     /* Change CAN state */
 798:Drivers/STM32F1xx_HAL_Driver/Src/stm32f1xx_hal_can.c ****     hcan->State = HAL_CAN_STATE_ERROR;
 799:Drivers/STM32F1xx_HAL_Driver/Src/stm32f1xx_hal_can.c **** 
 800:Drivers/STM32F1xx_HAL_Driver/Src/stm32f1xx_hal_can.c ****     /* Return function status */
 801:Drivers/STM32F1xx_HAL_Driver/Src/stm32f1xx_hal_can.c ****     return HAL_ERROR;
 802:Drivers/STM32F1xx_HAL_Driver/Src/stm32f1xx_hal_can.c ****   }
 803:Drivers/STM32F1xx_HAL_Driver/Src/stm32f1xx_hal_can.c **** 
 804:Drivers/STM32F1xx_HAL_Driver/Src/stm32f1xx_hal_can.c ****   return HAL_OK;
 1091              		.loc 1 804 0
 1092 0148 1046     		mov	r0, r2
 1093              	.LVL63:
 1094 014a 06E0     		b	.L82
 1095              	.LVL64:
 1096              	.L81:
 1097              	.LCFI8:
 1098              		.cfi_def_cfa_offset 0
 1099              		.cfi_restore 4
 1100              		.cfi_restore 5
 1101              		.cfi_restore 6
 1102              		.cfi_restore 7
 798:Drivers/STM32F1xx_HAL_Driver/Src/stm32f1xx_hal_can.c **** 
 1103              		.loc 1 798 0
 1104 014c 0423     		movs	r3, #4
 1105 014e 80F83C30 		strb	r3, [r0, #60]
 801:Drivers/STM32F1xx_HAL_Driver/Src/stm32f1xx_hal_can.c ****   }
 1106              		.loc 1 801 0
 1107 0152 0120     		movs	r0, #1
 1108              	.LVL65:
 1109 0154 7047     		bx	lr
 1110              	.LVL66:
ARM GAS  /tmp/ccRsISvi.s 			page 36


 1111              	.L91:
 708:Drivers/STM32F1xx_HAL_Driver/Src/stm32f1xx_hal_can.c ****     
 1112              		.loc 1 708 0
 1113 0156 0220     		movs	r0, #2
 1114              	.LVL67:
 1115 0158 7047     		bx	lr
 1116              	.LVL68:
 1117              	.L82:
 1118              	.LCFI9:
 1119              		.cfi_def_cfa_offset 16
 1120              		.cfi_offset 4, -16
 1121              		.cfi_offset 5, -12
 1122              		.cfi_offset 6, -8
 1123              		.cfi_offset 7, -4
 805:Drivers/STM32F1xx_HAL_Driver/Src/stm32f1xx_hal_can.c **** }
 1124              		.loc 1 805 0
 1125 015a F0BC     		pop	{r4, r5, r6, r7}
 1126              	.LCFI10:
 1127              		.cfi_restore 7
 1128              		.cfi_restore 6
 1129              		.cfi_restore 5
 1130              		.cfi_restore 4
 1131              		.cfi_def_cfa_offset 0
 1132 015c 7047     		bx	lr
 1133              		.cfi_endproc
 1134              	.LFE69:
 1136 015e 00BF     		.section	.text.HAL_CAN_Receive,"ax",%progbits
 1137              		.align	2
 1138              		.global	HAL_CAN_Receive
 1139              		.thumb
 1140              		.thumb_func
 1142              	HAL_CAN_Receive:
 1143              	.LFB70:
 806:Drivers/STM32F1xx_HAL_Driver/Src/stm32f1xx_hal_can.c **** 
 807:Drivers/STM32F1xx_HAL_Driver/Src/stm32f1xx_hal_can.c **** /**
 808:Drivers/STM32F1xx_HAL_Driver/Src/stm32f1xx_hal_can.c ****   * @brief  Receives a correct CAN frame.
 809:Drivers/STM32F1xx_HAL_Driver/Src/stm32f1xx_hal_can.c ****   * @param  hcan: pointer to a CAN_HandleTypeDef structure that contains
 810:Drivers/STM32F1xx_HAL_Driver/Src/stm32f1xx_hal_can.c ****   *         the configuration information for the specified CAN.  
 811:Drivers/STM32F1xx_HAL_Driver/Src/stm32f1xx_hal_can.c ****   * @param  FIFONumber: FIFO Number value
 812:Drivers/STM32F1xx_HAL_Driver/Src/stm32f1xx_hal_can.c ****   * @param  Timeout: Specify Timeout value 
 813:Drivers/STM32F1xx_HAL_Driver/Src/stm32f1xx_hal_can.c ****   * @retval HAL status
 814:Drivers/STM32F1xx_HAL_Driver/Src/stm32f1xx_hal_can.c ****   */
 815:Drivers/STM32F1xx_HAL_Driver/Src/stm32f1xx_hal_can.c **** HAL_StatusTypeDef HAL_CAN_Receive(CAN_HandleTypeDef* hcan, uint8_t FIFONumber, uint32_t Timeout)
 816:Drivers/STM32F1xx_HAL_Driver/Src/stm32f1xx_hal_can.c **** {
 1144              		.loc 1 816 0
 1145              		.cfi_startproc
 1146              		@ args = 0, pretend = 0, frame = 0
 1147              		@ frame_needed = 0, uses_anonymous_args = 0
 1148              	.LVL69:
 1149 0000 F8B5     		push	{r3, r4, r5, r6, r7, lr}
 1150              	.LCFI11:
 1151              		.cfi_def_cfa_offset 24
 1152              		.cfi_offset 3, -24
 1153              		.cfi_offset 4, -20
 1154              		.cfi_offset 5, -16
 1155              		.cfi_offset 6, -12
 1156              		.cfi_offset 7, -8
ARM GAS  /tmp/ccRsISvi.s 			page 37


 1157              		.cfi_offset 14, -4
 1158              	.LVL70:
 817:Drivers/STM32F1xx_HAL_Driver/Src/stm32f1xx_hal_can.c ****   uint32_t tickstart = 0U;
 818:Drivers/STM32F1xx_HAL_Driver/Src/stm32f1xx_hal_can.c ****   CanRxMsgTypeDef* pRxMsg = NULL;
 819:Drivers/STM32F1xx_HAL_Driver/Src/stm32f1xx_hal_can.c **** 
 820:Drivers/STM32F1xx_HAL_Driver/Src/stm32f1xx_hal_can.c ****   /* Check the parameters */
 821:Drivers/STM32F1xx_HAL_Driver/Src/stm32f1xx_hal_can.c ****   assert_param(IS_CAN_FIFO(FIFONumber));
 822:Drivers/STM32F1xx_HAL_Driver/Src/stm32f1xx_hal_can.c **** 
 823:Drivers/STM32F1xx_HAL_Driver/Src/stm32f1xx_hal_can.c ****   /* Check if CAN state is not busy for RX FIFO0 */
 824:Drivers/STM32F1xx_HAL_Driver/Src/stm32f1xx_hal_can.c ****   if ((FIFONumber == CAN_FIFO0) && ((hcan->State == HAL_CAN_STATE_BUSY_RX0) ||         \
 1159              		.loc 1 824 0
 1160 0002 0D46     		mov	r5, r1
 1161 0004 B9B9     		cbnz	r1, .L98
 1162              		.loc 1 824 0 is_stmt 0 discriminator 1
 1163 0006 90F83C30 		ldrb	r3, [r0, #60]	@ zero_extendqisi2
 1164 000a DBB2     		uxtb	r3, r3
 1165 000c 222B     		cmp	r3, #34
 1166 000e 00F03081 		beq	.L133
 825:Drivers/STM32F1xx_HAL_Driver/Src/stm32f1xx_hal_can.c ****                                     (hcan->State == HAL_CAN_STATE_BUSY_TX_RX0) ||      \
 1167              		.loc 1 825 0 is_stmt 1 discriminator 2
 1168 0012 90F83C30 		ldrb	r3, [r0, #60]	@ zero_extendqisi2
 1169 0016 DBB2     		uxtb	r3, r3
 824:Drivers/STM32F1xx_HAL_Driver/Src/stm32f1xx_hal_can.c ****                                     (hcan->State == HAL_CAN_STATE_BUSY_TX_RX0) ||      \
 1170              		.loc 1 824 0 discriminator 2
 1171 0018 422B     		cmp	r3, #66
 1172 001a 00F02C81 		beq	.L134
 826:Drivers/STM32F1xx_HAL_Driver/Src/stm32f1xx_hal_can.c ****                                     (hcan->State == HAL_CAN_STATE_BUSY_RX0_RX1) ||     \
 1173              		.loc 1 826 0
 1174 001e 90F83C30 		ldrb	r3, [r0, #60]	@ zero_extendqisi2
 1175 0022 DBB2     		uxtb	r3, r3
 825:Drivers/STM32F1xx_HAL_Driver/Src/stm32f1xx_hal_can.c ****                                     (hcan->State == HAL_CAN_STATE_BUSY_TX_RX0) ||      \
 1176              		.loc 1 825 0
 1177 0024 622B     		cmp	r3, #98
 1178 0026 00F02881 		beq	.L135
 827:Drivers/STM32F1xx_HAL_Driver/Src/stm32f1xx_hal_can.c ****                                     (hcan->State == HAL_CAN_STATE_BUSY_TX_RX0_RX1)))
 1179              		.loc 1 827 0
 1180 002a 90F83C30 		ldrb	r3, [r0, #60]	@ zero_extendqisi2
 1181 002e DBB2     		uxtb	r3, r3
 826:Drivers/STM32F1xx_HAL_Driver/Src/stm32f1xx_hal_can.c ****                                     (hcan->State == HAL_CAN_STATE_BUSY_RX0_RX1) ||     \
 1182              		.loc 1 826 0
 1183 0030 722B     		cmp	r3, #114
 1184 0032 00F02481 		beq	.L136
 1185              	.L98:
 828:Drivers/STM32F1xx_HAL_Driver/Src/stm32f1xx_hal_can.c ****   {
 829:Drivers/STM32F1xx_HAL_Driver/Src/stm32f1xx_hal_can.c ****     return HAL_BUSY;
 830:Drivers/STM32F1xx_HAL_Driver/Src/stm32f1xx_hal_can.c ****   }
 831:Drivers/STM32F1xx_HAL_Driver/Src/stm32f1xx_hal_can.c **** 
 832:Drivers/STM32F1xx_HAL_Driver/Src/stm32f1xx_hal_can.c ****   /* Check if CAN state is not busy for RX FIFO1 */
 833:Drivers/STM32F1xx_HAL_Driver/Src/stm32f1xx_hal_can.c ****   if ((FIFONumber == CAN_FIFO1) && ((hcan->State == HAL_CAN_STATE_BUSY_RX1) ||         \
 1186              		.loc 1 833 0
 1187 0036 012D     		cmp	r5, #1
 1188 0038 17D1     		bne	.L100
 1189              		.loc 1 833 0 is_stmt 0 discriminator 1
 1190 003a 90F83C30 		ldrb	r3, [r0, #60]	@ zero_extendqisi2
 1191 003e DBB2     		uxtb	r3, r3
 1192 0040 322B     		cmp	r3, #50
 1193 0042 00F01E81 		beq	.L137
ARM GAS  /tmp/ccRsISvi.s 			page 38


 834:Drivers/STM32F1xx_HAL_Driver/Src/stm32f1xx_hal_can.c ****                                     (hcan->State == HAL_CAN_STATE_BUSY_TX_RX1) ||      \
 1194              		.loc 1 834 0 is_stmt 1 discriminator 2
 1195 0046 90F83C30 		ldrb	r3, [r0, #60]	@ zero_extendqisi2
 1196 004a DBB2     		uxtb	r3, r3
 833:Drivers/STM32F1xx_HAL_Driver/Src/stm32f1xx_hal_can.c ****                                     (hcan->State == HAL_CAN_STATE_BUSY_TX_RX1) ||      \
 1197              		.loc 1 833 0 discriminator 2
 1198 004c 522B     		cmp	r3, #82
 1199 004e 00F01A81 		beq	.L138
 835:Drivers/STM32F1xx_HAL_Driver/Src/stm32f1xx_hal_can.c ****                                     (hcan->State == HAL_CAN_STATE_BUSY_RX0_RX1) ||     \
 1200              		.loc 1 835 0
 1201 0052 90F83C30 		ldrb	r3, [r0, #60]	@ zero_extendqisi2
 1202 0056 DBB2     		uxtb	r3, r3
 834:Drivers/STM32F1xx_HAL_Driver/Src/stm32f1xx_hal_can.c ****                                     (hcan->State == HAL_CAN_STATE_BUSY_TX_RX1) ||      \
 1203              		.loc 1 834 0
 1204 0058 622B     		cmp	r3, #98
 1205 005a 00F01681 		beq	.L139
 836:Drivers/STM32F1xx_HAL_Driver/Src/stm32f1xx_hal_can.c ****                                     (hcan->State == HAL_CAN_STATE_BUSY_TX_RX0_RX1)))
 1206              		.loc 1 836 0
 1207 005e 90F83C30 		ldrb	r3, [r0, #60]	@ zero_extendqisi2
 1208 0062 DBB2     		uxtb	r3, r3
 835:Drivers/STM32F1xx_HAL_Driver/Src/stm32f1xx_hal_can.c ****                                     (hcan->State == HAL_CAN_STATE_BUSY_RX0_RX1) ||     \
 1209              		.loc 1 835 0
 1210 0064 722B     		cmp	r3, #114
 1211 0066 00F01281 		beq	.L140
 1212              	.L100:
 837:Drivers/STM32F1xx_HAL_Driver/Src/stm32f1xx_hal_can.c ****   {
 838:Drivers/STM32F1xx_HAL_Driver/Src/stm32f1xx_hal_can.c ****     return HAL_BUSY;
 839:Drivers/STM32F1xx_HAL_Driver/Src/stm32f1xx_hal_can.c ****   }
 840:Drivers/STM32F1xx_HAL_Driver/Src/stm32f1xx_hal_can.c **** 
 841:Drivers/STM32F1xx_HAL_Driver/Src/stm32f1xx_hal_can.c ****   /* Process locked */
 842:Drivers/STM32F1xx_HAL_Driver/Src/stm32f1xx_hal_can.c ****   __HAL_LOCK(hcan);
 1213              		.loc 1 842 0
 1214 006a 90F83D30 		ldrb	r3, [r0, #61]	@ zero_extendqisi2
 1215 006e 012B     		cmp	r3, #1
 1216 0070 00F00F81 		beq	.L141
 1217              		.loc 1 842 0 is_stmt 0 discriminator 2
 1218 0074 0123     		movs	r3, #1
 1219 0076 80F83D30 		strb	r3, [r0, #61]
 843:Drivers/STM32F1xx_HAL_Driver/Src/stm32f1xx_hal_can.c **** 
 844:Drivers/STM32F1xx_HAL_Driver/Src/stm32f1xx_hal_can.c ****   /* Change CAN state */
 845:Drivers/STM32F1xx_HAL_Driver/Src/stm32f1xx_hal_can.c ****   if (FIFONumber == CAN_FIFO0)
 1220              		.loc 1 845 0 is_stmt 1 discriminator 2
 1221 007a C5B9     		cbnz	r5, .L101
 846:Drivers/STM32F1xx_HAL_Driver/Src/stm32f1xx_hal_can.c ****   {
 847:Drivers/STM32F1xx_HAL_Driver/Src/stm32f1xx_hal_can.c ****     switch(hcan->State)
 1222              		.loc 1 847 0
 1223 007c 90F83C30 		ldrb	r3, [r0, #60]	@ zero_extendqisi2
 1224 0080 DBB2     		uxtb	r3, r3
 1225 0082 322B     		cmp	r3, #50
 1226 0084 07D0     		beq	.L103
 1227 0086 522B     		cmp	r3, #82
 1228 0088 09D0     		beq	.L104
 1229 008a 122B     		cmp	r3, #18
 1230 008c 0BD1     		bne	.L142
 848:Drivers/STM32F1xx_HAL_Driver/Src/stm32f1xx_hal_can.c ****     {
 849:Drivers/STM32F1xx_HAL_Driver/Src/stm32f1xx_hal_can.c ****       case(HAL_CAN_STATE_BUSY_TX):
 850:Drivers/STM32F1xx_HAL_Driver/Src/stm32f1xx_hal_can.c ****         hcan->State = HAL_CAN_STATE_BUSY_TX_RX0;
ARM GAS  /tmp/ccRsISvi.s 			page 39


 1231              		.loc 1 850 0
 1232 008e 4223     		movs	r3, #66
 1233 0090 80F83C30 		strb	r3, [r0, #60]
 851:Drivers/STM32F1xx_HAL_Driver/Src/stm32f1xx_hal_can.c ****         break;
 1234              		.loc 1 851 0
 1235 0094 23E0     		b	.L106
 1236              	.L103:
 852:Drivers/STM32F1xx_HAL_Driver/Src/stm32f1xx_hal_can.c ****       case(HAL_CAN_STATE_BUSY_RX1):
 853:Drivers/STM32F1xx_HAL_Driver/Src/stm32f1xx_hal_can.c ****         hcan->State = HAL_CAN_STATE_BUSY_RX0_RX1;
 1237              		.loc 1 853 0
 1238 0096 6223     		movs	r3, #98
 1239 0098 80F83C30 		strb	r3, [r0, #60]
 854:Drivers/STM32F1xx_HAL_Driver/Src/stm32f1xx_hal_can.c ****         break;
 1240              		.loc 1 854 0
 1241 009c 1FE0     		b	.L106
 1242              	.L104:
 855:Drivers/STM32F1xx_HAL_Driver/Src/stm32f1xx_hal_can.c ****       case(HAL_CAN_STATE_BUSY_TX_RX1):
 856:Drivers/STM32F1xx_HAL_Driver/Src/stm32f1xx_hal_can.c ****         hcan->State = HAL_CAN_STATE_BUSY_TX_RX0_RX1;
 1243              		.loc 1 856 0
 1244 009e 7223     		movs	r3, #114
 1245 00a0 80F83C30 		strb	r3, [r0, #60]
 857:Drivers/STM32F1xx_HAL_Driver/Src/stm32f1xx_hal_can.c ****         break;
 1246              		.loc 1 857 0
 1247 00a4 1BE0     		b	.L106
 1248              	.L142:
 858:Drivers/STM32F1xx_HAL_Driver/Src/stm32f1xx_hal_can.c ****       default: /* HAL_CAN_STATE_READY */
 859:Drivers/STM32F1xx_HAL_Driver/Src/stm32f1xx_hal_can.c ****         hcan->State = HAL_CAN_STATE_BUSY_RX0;
 1249              		.loc 1 859 0
 1250 00a6 2223     		movs	r3, #34
 1251 00a8 80F83C30 		strb	r3, [r0, #60]
 860:Drivers/STM32F1xx_HAL_Driver/Src/stm32f1xx_hal_can.c ****         break;
 1252              		.loc 1 860 0
 1253 00ac 17E0     		b	.L106
 1254              	.L101:
 861:Drivers/STM32F1xx_HAL_Driver/Src/stm32f1xx_hal_can.c ****     }
 862:Drivers/STM32F1xx_HAL_Driver/Src/stm32f1xx_hal_can.c ****   }
 863:Drivers/STM32F1xx_HAL_Driver/Src/stm32f1xx_hal_can.c ****   else /* FIFONumber == CAN_FIFO1 */
 864:Drivers/STM32F1xx_HAL_Driver/Src/stm32f1xx_hal_can.c ****   {
 865:Drivers/STM32F1xx_HAL_Driver/Src/stm32f1xx_hal_can.c ****     switch(hcan->State)
 1255              		.loc 1 865 0
 1256 00ae 90F83C30 		ldrb	r3, [r0, #60]	@ zero_extendqisi2
 1257 00b2 DBB2     		uxtb	r3, r3
 1258 00b4 222B     		cmp	r3, #34
 1259 00b6 07D0     		beq	.L108
 1260 00b8 422B     		cmp	r3, #66
 1261 00ba 09D0     		beq	.L109
 1262 00bc 122B     		cmp	r3, #18
 1263 00be 0BD1     		bne	.L143
 866:Drivers/STM32F1xx_HAL_Driver/Src/stm32f1xx_hal_can.c ****     {
 867:Drivers/STM32F1xx_HAL_Driver/Src/stm32f1xx_hal_can.c ****       case(HAL_CAN_STATE_BUSY_TX):
 868:Drivers/STM32F1xx_HAL_Driver/Src/stm32f1xx_hal_can.c ****         hcan->State = HAL_CAN_STATE_BUSY_TX_RX1;
 1264              		.loc 1 868 0
 1265 00c0 5223     		movs	r3, #82
 1266 00c2 80F83C30 		strb	r3, [r0, #60]
 869:Drivers/STM32F1xx_HAL_Driver/Src/stm32f1xx_hal_can.c ****         break;
 1267              		.loc 1 869 0
 1268 00c6 0AE0     		b	.L106
ARM GAS  /tmp/ccRsISvi.s 			page 40


 1269              	.L108:
 870:Drivers/STM32F1xx_HAL_Driver/Src/stm32f1xx_hal_can.c ****       case(HAL_CAN_STATE_BUSY_RX0):
 871:Drivers/STM32F1xx_HAL_Driver/Src/stm32f1xx_hal_can.c ****         hcan->State = HAL_CAN_STATE_BUSY_RX0_RX1;
 1270              		.loc 1 871 0
 1271 00c8 6223     		movs	r3, #98
 1272 00ca 80F83C30 		strb	r3, [r0, #60]
 872:Drivers/STM32F1xx_HAL_Driver/Src/stm32f1xx_hal_can.c ****         break;
 1273              		.loc 1 872 0
 1274 00ce 06E0     		b	.L106
 1275              	.L109:
 873:Drivers/STM32F1xx_HAL_Driver/Src/stm32f1xx_hal_can.c ****       case(HAL_CAN_STATE_BUSY_TX_RX0):
 874:Drivers/STM32F1xx_HAL_Driver/Src/stm32f1xx_hal_can.c ****         hcan->State = HAL_CAN_STATE_BUSY_TX_RX0_RX1;
 1276              		.loc 1 874 0
 1277 00d0 7223     		movs	r3, #114
 1278 00d2 80F83C30 		strb	r3, [r0, #60]
 875:Drivers/STM32F1xx_HAL_Driver/Src/stm32f1xx_hal_can.c ****         break;
 1279              		.loc 1 875 0
 1280 00d6 02E0     		b	.L106
 1281              	.L143:
 876:Drivers/STM32F1xx_HAL_Driver/Src/stm32f1xx_hal_can.c ****       default: /* HAL_CAN_STATE_READY */
 877:Drivers/STM32F1xx_HAL_Driver/Src/stm32f1xx_hal_can.c ****         hcan->State = HAL_CAN_STATE_BUSY_RX1;
 1282              		.loc 1 877 0
 1283 00d8 3223     		movs	r3, #50
 1284 00da 80F83C30 		strb	r3, [r0, #60]
 1285              	.L106:
 1286 00de 1646     		mov	r6, r2
 1287 00e0 0446     		mov	r4, r0
 878:Drivers/STM32F1xx_HAL_Driver/Src/stm32f1xx_hal_can.c ****         break;
 879:Drivers/STM32F1xx_HAL_Driver/Src/stm32f1xx_hal_can.c ****     }
 880:Drivers/STM32F1xx_HAL_Driver/Src/stm32f1xx_hal_can.c ****   }
 881:Drivers/STM32F1xx_HAL_Driver/Src/stm32f1xx_hal_can.c ****   /* Get tick */ 
 882:Drivers/STM32F1xx_HAL_Driver/Src/stm32f1xx_hal_can.c ****   tickstart = HAL_GetTick();
 1288              		.loc 1 882 0
 1289 00e2 FFF7FEFF 		bl	HAL_GetTick
 1290              	.LVL71:
 1291 00e6 0746     		mov	r7, r0
 1292              	.LVL72:
 883:Drivers/STM32F1xx_HAL_Driver/Src/stm32f1xx_hal_can.c ****   
 884:Drivers/STM32F1xx_HAL_Driver/Src/stm32f1xx_hal_can.c ****   /* Check pending message */
 885:Drivers/STM32F1xx_HAL_Driver/Src/stm32f1xx_hal_can.c ****   while(__HAL_CAN_MSG_PENDING(hcan, FIFONumber) == 0U)
 1293              		.loc 1 885 0
 1294 00e8 0FE0     		b	.L112
 1295              	.LVL73:
 1296              	.L116:
 886:Drivers/STM32F1xx_HAL_Driver/Src/stm32f1xx_hal_can.c ****   {
 887:Drivers/STM32F1xx_HAL_Driver/Src/stm32f1xx_hal_can.c ****     /* Check for the Timeout */
 888:Drivers/STM32F1xx_HAL_Driver/Src/stm32f1xx_hal_can.c ****     if(Timeout != HAL_MAX_DELAY)
 1297              		.loc 1 888 0
 1298 00ea B6F1FF3F 		cmp	r6, #-1
 1299 00ee 0CD0     		beq	.L112
 889:Drivers/STM32F1xx_HAL_Driver/Src/stm32f1xx_hal_can.c ****     {
 890:Drivers/STM32F1xx_HAL_Driver/Src/stm32f1xx_hal_can.c ****       if((Timeout == 0U) || ((HAL_GetTick()-tickstart) > Timeout))
 1300              		.loc 1 890 0
 1301 00f0 26B1     		cbz	r6, .L113
 1302              		.loc 1 890 0 is_stmt 0 discriminator 1
 1303 00f2 FFF7FEFF 		bl	HAL_GetTick
 1304              	.LVL74:
ARM GAS  /tmp/ccRsISvi.s 			page 41


 1305 00f6 C01B     		subs	r0, r0, r7
 1306 00f8 B042     		cmp	r0, r6
 1307 00fa 06D9     		bls	.L112
 1308              	.L113:
 891:Drivers/STM32F1xx_HAL_Driver/Src/stm32f1xx_hal_can.c ****       {
 892:Drivers/STM32F1xx_HAL_Driver/Src/stm32f1xx_hal_can.c ****         hcan->State = HAL_CAN_STATE_TIMEOUT;
 1309              		.loc 1 892 0 is_stmt 1
 1310 00fc 0320     		movs	r0, #3
 1311 00fe 84F83C00 		strb	r0, [r4, #60]
 893:Drivers/STM32F1xx_HAL_Driver/Src/stm32f1xx_hal_can.c ****         /* Process unlocked */
 894:Drivers/STM32F1xx_HAL_Driver/Src/stm32f1xx_hal_can.c ****         __HAL_UNLOCK(hcan);
 1312              		.loc 1 894 0
 1313 0102 0023     		movs	r3, #0
 1314 0104 84F83D30 		strb	r3, [r4, #61]
 895:Drivers/STM32F1xx_HAL_Driver/Src/stm32f1xx_hal_can.c ****         return HAL_TIMEOUT;
 1315              		.loc 1 895 0
 1316 0108 F8BD     		pop	{r3, r4, r5, r6, r7, pc}
 1317              	.LVL75:
 1318              	.L112:
 885:Drivers/STM32F1xx_HAL_Driver/Src/stm32f1xx_hal_can.c ****   {
 1319              		.loc 1 885 0
 1320 010a 3DB9     		cbnz	r5, .L114
 885:Drivers/STM32F1xx_HAL_Driver/Src/stm32f1xx_hal_can.c ****   {
 1321              		.loc 1 885 0 is_stmt 0 discriminator 1
 1322 010c 2368     		ldr	r3, [r4]
 1323 010e DB68     		ldr	r3, [r3, #12]
 1324 0110 13F0030F 		tst	r3, #3
 1325 0114 0CBF     		ite	eq
 1326 0116 0123     		moveq	r3, #1
 1327 0118 0023     		movne	r3, #0
 1328 011a 06E0     		b	.L115
 1329              	.L114:
 885:Drivers/STM32F1xx_HAL_Driver/Src/stm32f1xx_hal_can.c ****   {
 1330              		.loc 1 885 0 discriminator 2
 1331 011c 2368     		ldr	r3, [r4]
 1332 011e 1B69     		ldr	r3, [r3, #16]
 1333 0120 13F0030F 		tst	r3, #3
 1334 0124 0CBF     		ite	eq
 1335 0126 0123     		moveq	r3, #1
 1336 0128 0023     		movne	r3, #0
 1337              	.L115:
 885:Drivers/STM32F1xx_HAL_Driver/Src/stm32f1xx_hal_can.c ****   {
 1338              		.loc 1 885 0 discriminator 4
 1339 012a 002B     		cmp	r3, #0
 1340 012c DDD1     		bne	.L116
 896:Drivers/STM32F1xx_HAL_Driver/Src/stm32f1xx_hal_can.c ****       }
 897:Drivers/STM32F1xx_HAL_Driver/Src/stm32f1xx_hal_can.c ****     }
 898:Drivers/STM32F1xx_HAL_Driver/Src/stm32f1xx_hal_can.c ****   }
 899:Drivers/STM32F1xx_HAL_Driver/Src/stm32f1xx_hal_can.c **** 
 900:Drivers/STM32F1xx_HAL_Driver/Src/stm32f1xx_hal_can.c ****   /* Set RxMsg pointer */
 901:Drivers/STM32F1xx_HAL_Driver/Src/stm32f1xx_hal_can.c ****   if(FIFONumber == CAN_FIFO0)
 1341              		.loc 1 901 0 is_stmt 1
 1342 012e 0DB9     		cbnz	r5, .L117
 902:Drivers/STM32F1xx_HAL_Driver/Src/stm32f1xx_hal_can.c ****   {
 903:Drivers/STM32F1xx_HAL_Driver/Src/stm32f1xx_hal_can.c ****     pRxMsg = hcan->pRxMsg;
 1343              		.loc 1 903 0
 1344 0130 636B     		ldr	r3, [r4, #52]
ARM GAS  /tmp/ccRsISvi.s 			page 42


 1345              	.LVL76:
 1346 0132 00E0     		b	.L118
 1347              	.LVL77:
 1348              	.L117:
 904:Drivers/STM32F1xx_HAL_Driver/Src/stm32f1xx_hal_can.c ****   }
 905:Drivers/STM32F1xx_HAL_Driver/Src/stm32f1xx_hal_can.c ****   else /* FIFONumber == CAN_FIFO1 */
 906:Drivers/STM32F1xx_HAL_Driver/Src/stm32f1xx_hal_can.c ****   {
 907:Drivers/STM32F1xx_HAL_Driver/Src/stm32f1xx_hal_can.c ****     pRxMsg = hcan->pRx1Msg;
 1349              		.loc 1 907 0
 1350 0134 A36B     		ldr	r3, [r4, #56]
 1351              	.LVL78:
 1352              	.L118:
 908:Drivers/STM32F1xx_HAL_Driver/Src/stm32f1xx_hal_can.c ****   }
 909:Drivers/STM32F1xx_HAL_Driver/Src/stm32f1xx_hal_can.c **** 
 910:Drivers/STM32F1xx_HAL_Driver/Src/stm32f1xx_hal_can.c ****   /* Get the Id */
 911:Drivers/STM32F1xx_HAL_Driver/Src/stm32f1xx_hal_can.c ****   pRxMsg->IDE = (uint8_t)CAN_ID_EXT & hcan->Instance->sFIFOMailBox[FIFONumber].RIR;
 1353              		.loc 1 911 0
 1354 0136 2168     		ldr	r1, [r4]
 1355 0138 05F11B02 		add	r2, r5, #27
 1356 013c 1201     		lsls	r2, r2, #4
 1357 013e 8A58     		ldr	r2, [r1, r2]
 1358 0140 02F00402 		and	r2, r2, #4
 1359 0144 9A60     		str	r2, [r3, #8]
 912:Drivers/STM32F1xx_HAL_Driver/Src/stm32f1xx_hal_can.c ****   if (pRxMsg->IDE == CAN_ID_STD)
 1360              		.loc 1 912 0
 1361 0146 3AB9     		cbnz	r2, .L119
 913:Drivers/STM32F1xx_HAL_Driver/Src/stm32f1xx_hal_can.c ****   {
 914:Drivers/STM32F1xx_HAL_Driver/Src/stm32f1xx_hal_can.c ****     pRxMsg->StdId = 0x000007FFU & (hcan->Instance->sFIFOMailBox[FIFONumber].RIR >> 21U);
 1362              		.loc 1 914 0
 1363 0148 2168     		ldr	r1, [r4]
 1364 014a 05F11B02 		add	r2, r5, #27
 1365 014e 1201     		lsls	r2, r2, #4
 1366 0150 8A58     		ldr	r2, [r1, r2]
 1367 0152 520D     		lsrs	r2, r2, #21
 1368 0154 1A60     		str	r2, [r3]
 1369 0156 06E0     		b	.L120
 1370              	.L119:
 915:Drivers/STM32F1xx_HAL_Driver/Src/stm32f1xx_hal_can.c ****   }
 916:Drivers/STM32F1xx_HAL_Driver/Src/stm32f1xx_hal_can.c ****   else
 917:Drivers/STM32F1xx_HAL_Driver/Src/stm32f1xx_hal_can.c ****   {
 918:Drivers/STM32F1xx_HAL_Driver/Src/stm32f1xx_hal_can.c ****     pRxMsg->ExtId = 0x1FFFFFFFU & (hcan->Instance->sFIFOMailBox[FIFONumber].RIR >> 3U);
 1371              		.loc 1 918 0
 1372 0158 2168     		ldr	r1, [r4]
 1373 015a 05F11B02 		add	r2, r5, #27
 1374 015e 1201     		lsls	r2, r2, #4
 1375 0160 8A58     		ldr	r2, [r1, r2]
 1376 0162 D208     		lsrs	r2, r2, #3
 1377 0164 5A60     		str	r2, [r3, #4]
 1378              	.L120:
 919:Drivers/STM32F1xx_HAL_Driver/Src/stm32f1xx_hal_can.c ****   }
 920:Drivers/STM32F1xx_HAL_Driver/Src/stm32f1xx_hal_can.c ****   
 921:Drivers/STM32F1xx_HAL_Driver/Src/stm32f1xx_hal_can.c ****   pRxMsg->RTR = (uint8_t)CAN_RTR_REMOTE & hcan->Instance->sFIFOMailBox[FIFONumber].RIR;
 1379              		.loc 1 921 0
 1380 0166 2168     		ldr	r1, [r4]
 1381 0168 05F11B02 		add	r2, r5, #27
 1382 016c 1201     		lsls	r2, r2, #4
 1383 016e 8958     		ldr	r1, [r1, r2]
ARM GAS  /tmp/ccRsISvi.s 			page 43


 1384 0170 01F00201 		and	r1, r1, #2
 1385 0174 D960     		str	r1, [r3, #12]
 922:Drivers/STM32F1xx_HAL_Driver/Src/stm32f1xx_hal_can.c ****   /* Get the DLC */
 923:Drivers/STM32F1xx_HAL_Driver/Src/stm32f1xx_hal_can.c ****   pRxMsg->DLC = (uint8_t)0x0FU & hcan->Instance->sFIFOMailBox[FIFONumber].RDTR;
 1386              		.loc 1 923 0
 1387 0176 2168     		ldr	r1, [r4]
 1388 0178 1144     		add	r1, r1, r2
 1389 017a 4968     		ldr	r1, [r1, #4]
 1390 017c 01F00F01 		and	r1, r1, #15
 1391 0180 1961     		str	r1, [r3, #16]
 924:Drivers/STM32F1xx_HAL_Driver/Src/stm32f1xx_hal_can.c ****   /* Get the FMI */
 925:Drivers/STM32F1xx_HAL_Driver/Src/stm32f1xx_hal_can.c ****   pRxMsg->FMI = (uint8_t)0xFFU & (hcan->Instance->sFIFOMailBox[FIFONumber].RDTR >> 8U);
 1392              		.loc 1 925 0
 1393 0182 2168     		ldr	r1, [r4]
 1394 0184 0A44     		add	r2, r2, r1
 1395 0186 5268     		ldr	r2, [r2, #4]
 1396 0188 C2F30722 		ubfx	r2, r2, #8, #8
 1397 018c DA61     		str	r2, [r3, #28]
 926:Drivers/STM32F1xx_HAL_Driver/Src/stm32f1xx_hal_can.c ****   /* Get the FIFONumber */
 927:Drivers/STM32F1xx_HAL_Driver/Src/stm32f1xx_hal_can.c ****   pRxMsg->FIFONumber = FIFONumber;
 1398              		.loc 1 927 0
 1399 018e 1D62     		str	r5, [r3, #32]
 928:Drivers/STM32F1xx_HAL_Driver/Src/stm32f1xx_hal_can.c ****   /* Get the data field */
 929:Drivers/STM32F1xx_HAL_Driver/Src/stm32f1xx_hal_can.c ****   pRxMsg->Data[0] = (uint8_t)0xFFU & hcan->Instance->sFIFOMailBox[FIFONumber].RDLR;
 1400              		.loc 1 929 0
 1401 0190 2168     		ldr	r1, [r4]
 1402 0192 2A01     		lsls	r2, r5, #4
 1403 0194 1144     		add	r1, r1, r2
 1404 0196 D1F8B811 		ldr	r1, [r1, #440]
 1405 019a 1975     		strb	r1, [r3, #20]
 930:Drivers/STM32F1xx_HAL_Driver/Src/stm32f1xx_hal_can.c ****   pRxMsg->Data[1] = (uint8_t)0xFFU & (hcan->Instance->sFIFOMailBox[FIFONumber].RDLR >> 8U);
 1406              		.loc 1 930 0
 1407 019c 2168     		ldr	r1, [r4]
 1408 019e 1144     		add	r1, r1, r2
 1409 01a0 D1F8B811 		ldr	r1, [r1, #440]
 1410 01a4 090A     		lsrs	r1, r1, #8
 1411 01a6 5975     		strb	r1, [r3, #21]
 931:Drivers/STM32F1xx_HAL_Driver/Src/stm32f1xx_hal_can.c ****   pRxMsg->Data[2] = (uint8_t)0xFFU & (hcan->Instance->sFIFOMailBox[FIFONumber].RDLR >> 16U);
 1412              		.loc 1 931 0
 1413 01a8 2168     		ldr	r1, [r4]
 1414 01aa 1144     		add	r1, r1, r2
 1415 01ac D1F8B811 		ldr	r1, [r1, #440]
 1416 01b0 090C     		lsrs	r1, r1, #16
 1417 01b2 9975     		strb	r1, [r3, #22]
 932:Drivers/STM32F1xx_HAL_Driver/Src/stm32f1xx_hal_can.c ****   pRxMsg->Data[3] = (uint8_t)0xFFU & (hcan->Instance->sFIFOMailBox[FIFONumber].RDLR >> 24U);
 1418              		.loc 1 932 0
 1419 01b4 2168     		ldr	r1, [r4]
 1420 01b6 1144     		add	r1, r1, r2
 1421 01b8 D1F8B811 		ldr	r1, [r1, #440]
 1422 01bc 090E     		lsrs	r1, r1, #24
 1423 01be D975     		strb	r1, [r3, #23]
 933:Drivers/STM32F1xx_HAL_Driver/Src/stm32f1xx_hal_can.c ****   pRxMsg->Data[4] = (uint8_t)0xFFU & hcan->Instance->sFIFOMailBox[FIFONumber].RDHR;
 1424              		.loc 1 933 0
 1425 01c0 2168     		ldr	r1, [r4]
 1426 01c2 1144     		add	r1, r1, r2
 1427 01c4 01F5DC71 		add	r1, r1, #440
 1428 01c8 4968     		ldr	r1, [r1, #4]
ARM GAS  /tmp/ccRsISvi.s 			page 44


 1429 01ca 1976     		strb	r1, [r3, #24]
 934:Drivers/STM32F1xx_HAL_Driver/Src/stm32f1xx_hal_can.c ****   pRxMsg->Data[5] = (uint8_t)0xFFU & (hcan->Instance->sFIFOMailBox[FIFONumber].RDHR >> 8U);
 1430              		.loc 1 934 0
 1431 01cc 2168     		ldr	r1, [r4]
 1432 01ce 1144     		add	r1, r1, r2
 1433 01d0 01F5DC71 		add	r1, r1, #440
 1434 01d4 4968     		ldr	r1, [r1, #4]
 1435 01d6 090A     		lsrs	r1, r1, #8
 1436 01d8 5976     		strb	r1, [r3, #25]
 935:Drivers/STM32F1xx_HAL_Driver/Src/stm32f1xx_hal_can.c ****   pRxMsg->Data[6] = (uint8_t)0xFFU & (hcan->Instance->sFIFOMailBox[FIFONumber].RDHR >> 16U);
 1437              		.loc 1 935 0
 1438 01da 2168     		ldr	r1, [r4]
 1439 01dc 1144     		add	r1, r1, r2
 1440 01de 01F5DC71 		add	r1, r1, #440
 1441 01e2 4968     		ldr	r1, [r1, #4]
 1442 01e4 090C     		lsrs	r1, r1, #16
 1443 01e6 9976     		strb	r1, [r3, #26]
 936:Drivers/STM32F1xx_HAL_Driver/Src/stm32f1xx_hal_can.c ****   pRxMsg->Data[7] = (uint8_t)0xFFU & (hcan->Instance->sFIFOMailBox[FIFONumber].RDHR >> 24U);
 1444              		.loc 1 936 0
 1445 01e8 2168     		ldr	r1, [r4]
 1446 01ea 0A44     		add	r2, r2, r1
 1447 01ec 02F5DC72 		add	r2, r2, #440
 1448 01f0 5268     		ldr	r2, [r2, #4]
 1449 01f2 120E     		lsrs	r2, r2, #24
 1450 01f4 DA76     		strb	r2, [r3, #27]
 937:Drivers/STM32F1xx_HAL_Driver/Src/stm32f1xx_hal_can.c ****   
 938:Drivers/STM32F1xx_HAL_Driver/Src/stm32f1xx_hal_can.c ****   /* Release the FIFO */
 939:Drivers/STM32F1xx_HAL_Driver/Src/stm32f1xx_hal_can.c ****   if(FIFONumber == CAN_FIFO0)
 1451              		.loc 1 939 0
 1452 01f6 1DB9     		cbnz	r5, .L121
 940:Drivers/STM32F1xx_HAL_Driver/Src/stm32f1xx_hal_can.c ****   {
 941:Drivers/STM32F1xx_HAL_Driver/Src/stm32f1xx_hal_can.c ****     /* Release FIFO0 */
 942:Drivers/STM32F1xx_HAL_Driver/Src/stm32f1xx_hal_can.c ****     __HAL_CAN_FIFO_RELEASE(hcan, CAN_FIFO0);
 1453              		.loc 1 942 0
 1454 01f8 2368     		ldr	r3, [r4]
 1455              	.LVL79:
 1456 01fa 2022     		movs	r2, #32
 1457 01fc DA60     		str	r2, [r3, #12]
 1458 01fe 02E0     		b	.L122
 1459              	.LVL80:
 1460              	.L121:
 943:Drivers/STM32F1xx_HAL_Driver/Src/stm32f1xx_hal_can.c ****   }
 944:Drivers/STM32F1xx_HAL_Driver/Src/stm32f1xx_hal_can.c ****   else /* FIFONumber == CAN_FIFO1 */
 945:Drivers/STM32F1xx_HAL_Driver/Src/stm32f1xx_hal_can.c ****   {
 946:Drivers/STM32F1xx_HAL_Driver/Src/stm32f1xx_hal_can.c ****     /* Release FIFO1 */
 947:Drivers/STM32F1xx_HAL_Driver/Src/stm32f1xx_hal_can.c ****     __HAL_CAN_FIFO_RELEASE(hcan, CAN_FIFO1);
 1461              		.loc 1 947 0
 1462 0200 2368     		ldr	r3, [r4]
 1463              	.LVL81:
 1464 0202 2022     		movs	r2, #32
 1465 0204 1A61     		str	r2, [r3, #16]
 1466              	.L122:
 948:Drivers/STM32F1xx_HAL_Driver/Src/stm32f1xx_hal_can.c ****   }
 949:Drivers/STM32F1xx_HAL_Driver/Src/stm32f1xx_hal_can.c ****   
 950:Drivers/STM32F1xx_HAL_Driver/Src/stm32f1xx_hal_can.c ****   /* Change CAN state */
 951:Drivers/STM32F1xx_HAL_Driver/Src/stm32f1xx_hal_can.c ****   if (FIFONumber == CAN_FIFO0)
 1467              		.loc 1 951 0
ARM GAS  /tmp/ccRsISvi.s 			page 45


 1468 0206 C5B9     		cbnz	r5, .L123
 952:Drivers/STM32F1xx_HAL_Driver/Src/stm32f1xx_hal_can.c ****   {
 953:Drivers/STM32F1xx_HAL_Driver/Src/stm32f1xx_hal_can.c ****     switch(hcan->State)
 1469              		.loc 1 953 0
 1470 0208 94F83C30 		ldrb	r3, [r4, #60]	@ zero_extendqisi2
 1471 020c DBB2     		uxtb	r3, r3
 1472 020e 622B     		cmp	r3, #98
 1473 0210 07D0     		beq	.L125
 1474 0212 722B     		cmp	r3, #114
 1475 0214 09D0     		beq	.L126
 1476 0216 422B     		cmp	r3, #66
 1477 0218 0BD1     		bne	.L144
 954:Drivers/STM32F1xx_HAL_Driver/Src/stm32f1xx_hal_can.c ****     {
 955:Drivers/STM32F1xx_HAL_Driver/Src/stm32f1xx_hal_can.c ****       case(HAL_CAN_STATE_BUSY_TX_RX0):
 956:Drivers/STM32F1xx_HAL_Driver/Src/stm32f1xx_hal_can.c ****         hcan->State = HAL_CAN_STATE_BUSY_TX;
 1478              		.loc 1 956 0
 1479 021a 1223     		movs	r3, #18
 1480 021c 84F83C30 		strb	r3, [r4, #60]
 957:Drivers/STM32F1xx_HAL_Driver/Src/stm32f1xx_hal_can.c ****         break;
 1481              		.loc 1 957 0
 1482 0220 23E0     		b	.L128
 1483              	.L125:
 958:Drivers/STM32F1xx_HAL_Driver/Src/stm32f1xx_hal_can.c ****       case(HAL_CAN_STATE_BUSY_RX0_RX1):
 959:Drivers/STM32F1xx_HAL_Driver/Src/stm32f1xx_hal_can.c ****         hcan->State = HAL_CAN_STATE_BUSY_RX1;
 1484              		.loc 1 959 0
 1485 0222 3223     		movs	r3, #50
 1486 0224 84F83C30 		strb	r3, [r4, #60]
 960:Drivers/STM32F1xx_HAL_Driver/Src/stm32f1xx_hal_can.c ****         break;
 1487              		.loc 1 960 0
 1488 0228 1FE0     		b	.L128
 1489              	.L126:
 961:Drivers/STM32F1xx_HAL_Driver/Src/stm32f1xx_hal_can.c ****       case(HAL_CAN_STATE_BUSY_TX_RX0_RX1):
 962:Drivers/STM32F1xx_HAL_Driver/Src/stm32f1xx_hal_can.c ****         hcan->State = HAL_CAN_STATE_BUSY_TX_RX1;
 1490              		.loc 1 962 0
 1491 022a 5223     		movs	r3, #82
 1492 022c 84F83C30 		strb	r3, [r4, #60]
 963:Drivers/STM32F1xx_HAL_Driver/Src/stm32f1xx_hal_can.c ****         break;
 1493              		.loc 1 963 0
 1494 0230 1BE0     		b	.L128
 1495              	.L144:
 964:Drivers/STM32F1xx_HAL_Driver/Src/stm32f1xx_hal_can.c ****       default: /* HAL_CAN_STATE_BUSY_RX0 */
 965:Drivers/STM32F1xx_HAL_Driver/Src/stm32f1xx_hal_can.c ****         hcan->State = HAL_CAN_STATE_READY;
 1496              		.loc 1 965 0
 1497 0232 0123     		movs	r3, #1
 1498 0234 84F83C30 		strb	r3, [r4, #60]
 966:Drivers/STM32F1xx_HAL_Driver/Src/stm32f1xx_hal_can.c ****         break;
 1499              		.loc 1 966 0
 1500 0238 17E0     		b	.L128
 1501              	.L123:
 967:Drivers/STM32F1xx_HAL_Driver/Src/stm32f1xx_hal_can.c ****     }
 968:Drivers/STM32F1xx_HAL_Driver/Src/stm32f1xx_hal_can.c ****   }
 969:Drivers/STM32F1xx_HAL_Driver/Src/stm32f1xx_hal_can.c ****   else /* FIFONumber == CAN_FIFO1 */
 970:Drivers/STM32F1xx_HAL_Driver/Src/stm32f1xx_hal_can.c ****   {
 971:Drivers/STM32F1xx_HAL_Driver/Src/stm32f1xx_hal_can.c ****     switch(hcan->State)
 1502              		.loc 1 971 0
 1503 023a 94F83C30 		ldrb	r3, [r4, #60]	@ zero_extendqisi2
 1504 023e DBB2     		uxtb	r3, r3
ARM GAS  /tmp/ccRsISvi.s 			page 46


 1505 0240 622B     		cmp	r3, #98
 1506 0242 07D0     		beq	.L130
 1507 0244 722B     		cmp	r3, #114
 1508 0246 09D0     		beq	.L131
 1509 0248 522B     		cmp	r3, #82
 1510 024a 0BD1     		bne	.L145
 972:Drivers/STM32F1xx_HAL_Driver/Src/stm32f1xx_hal_can.c ****     {
 973:Drivers/STM32F1xx_HAL_Driver/Src/stm32f1xx_hal_can.c ****       case(HAL_CAN_STATE_BUSY_TX_RX1):
 974:Drivers/STM32F1xx_HAL_Driver/Src/stm32f1xx_hal_can.c ****         hcan->State = HAL_CAN_STATE_BUSY_TX;
 1511              		.loc 1 974 0
 1512 024c 1223     		movs	r3, #18
 1513 024e 84F83C30 		strb	r3, [r4, #60]
 975:Drivers/STM32F1xx_HAL_Driver/Src/stm32f1xx_hal_can.c ****         break;
 1514              		.loc 1 975 0
 1515 0252 0AE0     		b	.L128
 1516              	.L130:
 976:Drivers/STM32F1xx_HAL_Driver/Src/stm32f1xx_hal_can.c ****       case(HAL_CAN_STATE_BUSY_RX0_RX1):
 977:Drivers/STM32F1xx_HAL_Driver/Src/stm32f1xx_hal_can.c ****         hcan->State = HAL_CAN_STATE_BUSY_RX0;
 1517              		.loc 1 977 0
 1518 0254 2223     		movs	r3, #34
 1519 0256 84F83C30 		strb	r3, [r4, #60]
 978:Drivers/STM32F1xx_HAL_Driver/Src/stm32f1xx_hal_can.c ****         break;
 1520              		.loc 1 978 0
 1521 025a 06E0     		b	.L128
 1522              	.L131:
 979:Drivers/STM32F1xx_HAL_Driver/Src/stm32f1xx_hal_can.c ****       case(HAL_CAN_STATE_BUSY_TX_RX0_RX1):
 980:Drivers/STM32F1xx_HAL_Driver/Src/stm32f1xx_hal_can.c ****         hcan->State = HAL_CAN_STATE_BUSY_TX_RX0;
 1523              		.loc 1 980 0
 1524 025c 4223     		movs	r3, #66
 1525 025e 84F83C30 		strb	r3, [r4, #60]
 981:Drivers/STM32F1xx_HAL_Driver/Src/stm32f1xx_hal_can.c ****         break;
 1526              		.loc 1 981 0
 1527 0262 02E0     		b	.L128
 1528              	.L145:
 982:Drivers/STM32F1xx_HAL_Driver/Src/stm32f1xx_hal_can.c ****       default: /* HAL_CAN_STATE_BUSY_RX1 */
 983:Drivers/STM32F1xx_HAL_Driver/Src/stm32f1xx_hal_can.c ****         hcan->State = HAL_CAN_STATE_READY;
 1529              		.loc 1 983 0
 1530 0264 0123     		movs	r3, #1
 1531 0266 84F83C30 		strb	r3, [r4, #60]
 1532              	.L128:
 984:Drivers/STM32F1xx_HAL_Driver/Src/stm32f1xx_hal_can.c ****         break;
 985:Drivers/STM32F1xx_HAL_Driver/Src/stm32f1xx_hal_can.c ****     }
 986:Drivers/STM32F1xx_HAL_Driver/Src/stm32f1xx_hal_can.c ****   }
 987:Drivers/STM32F1xx_HAL_Driver/Src/stm32f1xx_hal_can.c **** 
 988:Drivers/STM32F1xx_HAL_Driver/Src/stm32f1xx_hal_can.c ****   /* Process unlocked */
 989:Drivers/STM32F1xx_HAL_Driver/Src/stm32f1xx_hal_can.c ****   __HAL_UNLOCK(hcan);
 1533              		.loc 1 989 0
 1534 026a 0020     		movs	r0, #0
 1535 026c 84F83D00 		strb	r0, [r4, #61]
 990:Drivers/STM32F1xx_HAL_Driver/Src/stm32f1xx_hal_can.c **** 
 991:Drivers/STM32F1xx_HAL_Driver/Src/stm32f1xx_hal_can.c ****   /* Return function status */
 992:Drivers/STM32F1xx_HAL_Driver/Src/stm32f1xx_hal_can.c ****   return HAL_OK;
 1536              		.loc 1 992 0
 1537 0270 F8BD     		pop	{r3, r4, r5, r6, r7, pc}
 1538              	.LVL82:
 1539              	.L133:
 829:Drivers/STM32F1xx_HAL_Driver/Src/stm32f1xx_hal_can.c ****   }
ARM GAS  /tmp/ccRsISvi.s 			page 47


 1540              		.loc 1 829 0
 1541 0272 0220     		movs	r0, #2
 1542              	.LVL83:
 1543 0274 F8BD     		pop	{r3, r4, r5, r6, r7, pc}
 1544              	.LVL84:
 1545              	.L134:
 1546 0276 0220     		movs	r0, #2
 1547              	.LVL85:
 1548 0278 F8BD     		pop	{r3, r4, r5, r6, r7, pc}
 1549              	.LVL86:
 1550              	.L135:
 1551 027a 0220     		movs	r0, #2
 1552              	.LVL87:
 1553 027c F8BD     		pop	{r3, r4, r5, r6, r7, pc}
 1554              	.LVL88:
 1555              	.L136:
 1556 027e 0220     		movs	r0, #2
 1557              	.LVL89:
 1558 0280 F8BD     		pop	{r3, r4, r5, r6, r7, pc}
 1559              	.LVL90:
 1560              	.L137:
 838:Drivers/STM32F1xx_HAL_Driver/Src/stm32f1xx_hal_can.c ****   }
 1561              		.loc 1 838 0
 1562 0282 0220     		movs	r0, #2
 1563              	.LVL91:
 1564 0284 F8BD     		pop	{r3, r4, r5, r6, r7, pc}
 1565              	.LVL92:
 1566              	.L138:
 1567 0286 0220     		movs	r0, #2
 1568              	.LVL93:
 1569 0288 F8BD     		pop	{r3, r4, r5, r6, r7, pc}
 1570              	.LVL94:
 1571              	.L139:
 1572 028a 0220     		movs	r0, #2
 1573              	.LVL95:
 1574 028c F8BD     		pop	{r3, r4, r5, r6, r7, pc}
 1575              	.LVL96:
 1576              	.L140:
 1577 028e 0220     		movs	r0, #2
 1578              	.LVL97:
 1579 0290 F8BD     		pop	{r3, r4, r5, r6, r7, pc}
 1580              	.LVL98:
 1581              	.L141:
 842:Drivers/STM32F1xx_HAL_Driver/Src/stm32f1xx_hal_can.c **** 
 1582              		.loc 1 842 0
 1583 0292 0220     		movs	r0, #2
 1584              	.LVL99:
 993:Drivers/STM32F1xx_HAL_Driver/Src/stm32f1xx_hal_can.c **** }
 1585              		.loc 1 993 0
 1586 0294 F8BD     		pop	{r3, r4, r5, r6, r7, pc}
 1587              		.cfi_endproc
 1588              	.LFE70:
 1590 0296 00BF     		.section	.text.HAL_CAN_Receive_IT,"ax",%progbits
 1591              		.align	2
 1592              		.global	HAL_CAN_Receive_IT
 1593              		.thumb
 1594              		.thumb_func
ARM GAS  /tmp/ccRsISvi.s 			page 48


 1596              	HAL_CAN_Receive_IT:
 1597              	.LFB71:
 994:Drivers/STM32F1xx_HAL_Driver/Src/stm32f1xx_hal_can.c **** 
 995:Drivers/STM32F1xx_HAL_Driver/Src/stm32f1xx_hal_can.c **** /**
 996:Drivers/STM32F1xx_HAL_Driver/Src/stm32f1xx_hal_can.c ****   * @brief  Receives a correct CAN frame.
 997:Drivers/STM32F1xx_HAL_Driver/Src/stm32f1xx_hal_can.c ****   * @param  hcan: pointer to a CAN_HandleTypeDef structure that contains
 998:Drivers/STM32F1xx_HAL_Driver/Src/stm32f1xx_hal_can.c ****   *         the configuration information for the specified CAN.  
 999:Drivers/STM32F1xx_HAL_Driver/Src/stm32f1xx_hal_can.c ****   * @param  FIFONumber: Specify the FIFO number    
1000:Drivers/STM32F1xx_HAL_Driver/Src/stm32f1xx_hal_can.c ****   * @retval HAL status
1001:Drivers/STM32F1xx_HAL_Driver/Src/stm32f1xx_hal_can.c ****   */
1002:Drivers/STM32F1xx_HAL_Driver/Src/stm32f1xx_hal_can.c **** HAL_StatusTypeDef HAL_CAN_Receive_IT(CAN_HandleTypeDef* hcan, uint8_t FIFONumber)
1003:Drivers/STM32F1xx_HAL_Driver/Src/stm32f1xx_hal_can.c **** {
 1598              		.loc 1 1003 0
 1599              		.cfi_startproc
 1600              		@ args = 0, pretend = 0, frame = 0
 1601              		@ frame_needed = 0, uses_anonymous_args = 0
 1602              		@ link register save eliminated.
 1603              	.LVL100:
1004:Drivers/STM32F1xx_HAL_Driver/Src/stm32f1xx_hal_can.c ****   /* Check the parameters */
1005:Drivers/STM32F1xx_HAL_Driver/Src/stm32f1xx_hal_can.c ****   assert_param(IS_CAN_FIFO(FIFONumber));
1006:Drivers/STM32F1xx_HAL_Driver/Src/stm32f1xx_hal_can.c ****   
1007:Drivers/STM32F1xx_HAL_Driver/Src/stm32f1xx_hal_can.c ****   /* Check if CAN state is not busy for RX FIFO0 */
1008:Drivers/STM32F1xx_HAL_Driver/Src/stm32f1xx_hal_can.c ****   if((FIFONumber == CAN_FIFO0) && ((hcan->State == HAL_CAN_STATE_BUSY_RX0) ||         \
 1604              		.loc 1 1008 0
 1605 0000 0B46     		mov	r3, r1
 1606 0002 99B9     		cbnz	r1, .L148
 1607              		.loc 1 1008 0 is_stmt 0 discriminator 1
 1608 0004 90F83C20 		ldrb	r2, [r0, #60]	@ zero_extendqisi2
 1609 0008 D2B2     		uxtb	r2, r2
 1610 000a 222A     		cmp	r2, #34
 1611 000c 78D0     		beq	.L162
1009:Drivers/STM32F1xx_HAL_Driver/Src/stm32f1xx_hal_can.c ****                                    (hcan->State == HAL_CAN_STATE_BUSY_TX_RX0) ||      \
 1612              		.loc 1 1009 0 is_stmt 1 discriminator 2
 1613 000e 90F83C20 		ldrb	r2, [r0, #60]	@ zero_extendqisi2
 1614 0012 D2B2     		uxtb	r2, r2
1008:Drivers/STM32F1xx_HAL_Driver/Src/stm32f1xx_hal_can.c ****                                    (hcan->State == HAL_CAN_STATE_BUSY_TX_RX0) ||      \
 1615              		.loc 1 1008 0 discriminator 2
 1616 0014 422A     		cmp	r2, #66
 1617 0016 75D0     		beq	.L163
1010:Drivers/STM32F1xx_HAL_Driver/Src/stm32f1xx_hal_can.c ****                                    (hcan->State == HAL_CAN_STATE_BUSY_RX0_RX1) ||     \
 1618              		.loc 1 1010 0
 1619 0018 90F83C20 		ldrb	r2, [r0, #60]	@ zero_extendqisi2
 1620 001c D2B2     		uxtb	r2, r2
1009:Drivers/STM32F1xx_HAL_Driver/Src/stm32f1xx_hal_can.c ****                                    (hcan->State == HAL_CAN_STATE_BUSY_TX_RX0) ||      \
 1621              		.loc 1 1009 0
 1622 001e 622A     		cmp	r2, #98
 1623 0020 72D0     		beq	.L164
1011:Drivers/STM32F1xx_HAL_Driver/Src/stm32f1xx_hal_can.c ****                                    (hcan->State == HAL_CAN_STATE_BUSY_TX_RX0_RX1)))
 1624              		.loc 1 1011 0
 1625 0022 90F83C20 		ldrb	r2, [r0, #60]	@ zero_extendqisi2
 1626 0026 D2B2     		uxtb	r2, r2
1010:Drivers/STM32F1xx_HAL_Driver/Src/stm32f1xx_hal_can.c ****                                    (hcan->State == HAL_CAN_STATE_BUSY_RX0_RX1) ||     \
 1627              		.loc 1 1010 0
 1628 0028 722A     		cmp	r2, #114
 1629 002a 6FD0     		beq	.L165
 1630              	.L148:
1012:Drivers/STM32F1xx_HAL_Driver/Src/stm32f1xx_hal_can.c ****   {
ARM GAS  /tmp/ccRsISvi.s 			page 49


1013:Drivers/STM32F1xx_HAL_Driver/Src/stm32f1xx_hal_can.c ****     return HAL_BUSY;
1014:Drivers/STM32F1xx_HAL_Driver/Src/stm32f1xx_hal_can.c ****   }
1015:Drivers/STM32F1xx_HAL_Driver/Src/stm32f1xx_hal_can.c **** 
1016:Drivers/STM32F1xx_HAL_Driver/Src/stm32f1xx_hal_can.c ****   /* Check if CAN state is not busy for RX FIFO1 */
1017:Drivers/STM32F1xx_HAL_Driver/Src/stm32f1xx_hal_can.c ****   if((FIFONumber == CAN_FIFO1) && ((hcan->State == HAL_CAN_STATE_BUSY_RX1) ||         \
 1631              		.loc 1 1017 0
 1632 002c 012B     		cmp	r3, #1
 1633 002e 13D1     		bne	.L150
 1634              		.loc 1 1017 0 is_stmt 0 discriminator 1
 1635 0030 90F83C20 		ldrb	r2, [r0, #60]	@ zero_extendqisi2
 1636 0034 D2B2     		uxtb	r2, r2
 1637 0036 322A     		cmp	r2, #50
 1638 0038 6AD0     		beq	.L166
1018:Drivers/STM32F1xx_HAL_Driver/Src/stm32f1xx_hal_can.c ****                                    (hcan->State == HAL_CAN_STATE_BUSY_TX_RX1) ||      \
 1639              		.loc 1 1018 0 is_stmt 1 discriminator 2
 1640 003a 90F83C20 		ldrb	r2, [r0, #60]	@ zero_extendqisi2
 1641 003e D2B2     		uxtb	r2, r2
1017:Drivers/STM32F1xx_HAL_Driver/Src/stm32f1xx_hal_can.c ****                                    (hcan->State == HAL_CAN_STATE_BUSY_TX_RX1) ||      \
 1642              		.loc 1 1017 0 discriminator 2
 1643 0040 522A     		cmp	r2, #82
 1644 0042 67D0     		beq	.L167
1019:Drivers/STM32F1xx_HAL_Driver/Src/stm32f1xx_hal_can.c ****                                    (hcan->State == HAL_CAN_STATE_BUSY_RX0_RX1) ||     \
 1645              		.loc 1 1019 0
 1646 0044 90F83C20 		ldrb	r2, [r0, #60]	@ zero_extendqisi2
 1647 0048 D2B2     		uxtb	r2, r2
1018:Drivers/STM32F1xx_HAL_Driver/Src/stm32f1xx_hal_can.c ****                                    (hcan->State == HAL_CAN_STATE_BUSY_TX_RX1) ||      \
 1648              		.loc 1 1018 0
 1649 004a 622A     		cmp	r2, #98
 1650 004c 64D0     		beq	.L168
1020:Drivers/STM32F1xx_HAL_Driver/Src/stm32f1xx_hal_can.c ****                                    (hcan->State == HAL_CAN_STATE_BUSY_TX_RX0_RX1)))
 1651              		.loc 1 1020 0
 1652 004e 90F83C20 		ldrb	r2, [r0, #60]	@ zero_extendqisi2
 1653 0052 D2B2     		uxtb	r2, r2
1019:Drivers/STM32F1xx_HAL_Driver/Src/stm32f1xx_hal_can.c ****                                    (hcan->State == HAL_CAN_STATE_BUSY_RX0_RX1) ||     \
 1654              		.loc 1 1019 0
 1655 0054 722A     		cmp	r2, #114
 1656 0056 61D0     		beq	.L169
 1657              	.L150:
1021:Drivers/STM32F1xx_HAL_Driver/Src/stm32f1xx_hal_can.c ****   {
1022:Drivers/STM32F1xx_HAL_Driver/Src/stm32f1xx_hal_can.c ****     return HAL_BUSY;
1023:Drivers/STM32F1xx_HAL_Driver/Src/stm32f1xx_hal_can.c ****   }
1024:Drivers/STM32F1xx_HAL_Driver/Src/stm32f1xx_hal_can.c **** 
1025:Drivers/STM32F1xx_HAL_Driver/Src/stm32f1xx_hal_can.c ****   /* Process locked */
1026:Drivers/STM32F1xx_HAL_Driver/Src/stm32f1xx_hal_can.c ****   __HAL_LOCK(hcan);
 1658              		.loc 1 1026 0
 1659 0058 90F83D20 		ldrb	r2, [r0, #61]	@ zero_extendqisi2
 1660 005c 012A     		cmp	r2, #1
 1661 005e 5FD0     		beq	.L170
1003:Drivers/STM32F1xx_HAL_Driver/Src/stm32f1xx_hal_can.c ****   /* Check the parameters */
 1662              		.loc 1 1003 0 discriminator 2
 1663 0060 10B4     		push	{r4}
 1664              	.LCFI12:
 1665              		.cfi_def_cfa_offset 4
 1666              		.cfi_offset 4, -4
 1667              		.loc 1 1026 0 discriminator 2
 1668 0062 0122     		movs	r2, #1
 1669 0064 80F83D20 		strb	r2, [r0, #61]
ARM GAS  /tmp/ccRsISvi.s 			page 50


1027:Drivers/STM32F1xx_HAL_Driver/Src/stm32f1xx_hal_can.c **** 
1028:Drivers/STM32F1xx_HAL_Driver/Src/stm32f1xx_hal_can.c ****   /* Change CAN state */
1029:Drivers/STM32F1xx_HAL_Driver/Src/stm32f1xx_hal_can.c ****   if(FIFONumber == CAN_FIFO0)
 1670              		.loc 1 1029 0 discriminator 2
 1671 0068 C3B9     		cbnz	r3, .L151
1030:Drivers/STM32F1xx_HAL_Driver/Src/stm32f1xx_hal_can.c ****   {
1031:Drivers/STM32F1xx_HAL_Driver/Src/stm32f1xx_hal_can.c ****     switch(hcan->State)
 1672              		.loc 1 1031 0
 1673 006a 90F83C20 		ldrb	r2, [r0, #60]	@ zero_extendqisi2
 1674 006e D2B2     		uxtb	r2, r2
 1675 0070 322A     		cmp	r2, #50
 1676 0072 07D0     		beq	.L153
 1677 0074 522A     		cmp	r2, #82
 1678 0076 09D0     		beq	.L154
 1679 0078 122A     		cmp	r2, #18
 1680 007a 0BD1     		bne	.L171
1032:Drivers/STM32F1xx_HAL_Driver/Src/stm32f1xx_hal_can.c ****     {
1033:Drivers/STM32F1xx_HAL_Driver/Src/stm32f1xx_hal_can.c ****       case(HAL_CAN_STATE_BUSY_TX):
1034:Drivers/STM32F1xx_HAL_Driver/Src/stm32f1xx_hal_can.c ****         hcan->State = HAL_CAN_STATE_BUSY_TX_RX0;
 1681              		.loc 1 1034 0
 1682 007c 4222     		movs	r2, #66
 1683 007e 80F83C20 		strb	r2, [r0, #60]
1035:Drivers/STM32F1xx_HAL_Driver/Src/stm32f1xx_hal_can.c ****         break;
 1684              		.loc 1 1035 0
 1685 0082 23E0     		b	.L156
 1686              	.L153:
1036:Drivers/STM32F1xx_HAL_Driver/Src/stm32f1xx_hal_can.c ****       case(HAL_CAN_STATE_BUSY_RX1):
1037:Drivers/STM32F1xx_HAL_Driver/Src/stm32f1xx_hal_can.c ****         hcan->State = HAL_CAN_STATE_BUSY_RX0_RX1;
 1687              		.loc 1 1037 0
 1688 0084 6222     		movs	r2, #98
 1689 0086 80F83C20 		strb	r2, [r0, #60]
1038:Drivers/STM32F1xx_HAL_Driver/Src/stm32f1xx_hal_can.c ****         break;
 1690              		.loc 1 1038 0
 1691 008a 1FE0     		b	.L156
 1692              	.L154:
1039:Drivers/STM32F1xx_HAL_Driver/Src/stm32f1xx_hal_can.c ****       case(HAL_CAN_STATE_BUSY_TX_RX1):
1040:Drivers/STM32F1xx_HAL_Driver/Src/stm32f1xx_hal_can.c ****         hcan->State = HAL_CAN_STATE_BUSY_TX_RX0_RX1;
 1693              		.loc 1 1040 0
 1694 008c 7222     		movs	r2, #114
 1695 008e 80F83C20 		strb	r2, [r0, #60]
1041:Drivers/STM32F1xx_HAL_Driver/Src/stm32f1xx_hal_can.c ****         break;
 1696              		.loc 1 1041 0
 1697 0092 1BE0     		b	.L156
 1698              	.L171:
1042:Drivers/STM32F1xx_HAL_Driver/Src/stm32f1xx_hal_can.c ****       default: /* HAL_CAN_STATE_READY */
1043:Drivers/STM32F1xx_HAL_Driver/Src/stm32f1xx_hal_can.c ****         hcan->State = HAL_CAN_STATE_BUSY_RX0;
 1699              		.loc 1 1043 0
 1700 0094 2222     		movs	r2, #34
 1701 0096 80F83C20 		strb	r2, [r0, #60]
1044:Drivers/STM32F1xx_HAL_Driver/Src/stm32f1xx_hal_can.c ****         break;
 1702              		.loc 1 1044 0
 1703 009a 17E0     		b	.L156
 1704              	.L151:
1045:Drivers/STM32F1xx_HAL_Driver/Src/stm32f1xx_hal_can.c ****     }
1046:Drivers/STM32F1xx_HAL_Driver/Src/stm32f1xx_hal_can.c ****   }
1047:Drivers/STM32F1xx_HAL_Driver/Src/stm32f1xx_hal_can.c ****   else /* FIFONumber == CAN_FIFO1 */
1048:Drivers/STM32F1xx_HAL_Driver/Src/stm32f1xx_hal_can.c ****   {
ARM GAS  /tmp/ccRsISvi.s 			page 51


1049:Drivers/STM32F1xx_HAL_Driver/Src/stm32f1xx_hal_can.c ****     switch(hcan->State)
 1705              		.loc 1 1049 0
 1706 009c 90F83C20 		ldrb	r2, [r0, #60]	@ zero_extendqisi2
 1707 00a0 D2B2     		uxtb	r2, r2
 1708 00a2 222A     		cmp	r2, #34
 1709 00a4 07D0     		beq	.L158
 1710 00a6 422A     		cmp	r2, #66
 1711 00a8 09D0     		beq	.L159
 1712 00aa 122A     		cmp	r2, #18
 1713 00ac 0BD1     		bne	.L172
1050:Drivers/STM32F1xx_HAL_Driver/Src/stm32f1xx_hal_can.c ****     {
1051:Drivers/STM32F1xx_HAL_Driver/Src/stm32f1xx_hal_can.c ****       case(HAL_CAN_STATE_BUSY_TX):
1052:Drivers/STM32F1xx_HAL_Driver/Src/stm32f1xx_hal_can.c ****         hcan->State = HAL_CAN_STATE_BUSY_TX_RX1;
 1714              		.loc 1 1052 0
 1715 00ae 5222     		movs	r2, #82
 1716 00b0 80F83C20 		strb	r2, [r0, #60]
1053:Drivers/STM32F1xx_HAL_Driver/Src/stm32f1xx_hal_can.c ****         break;
 1717              		.loc 1 1053 0
 1718 00b4 0AE0     		b	.L156
 1719              	.L158:
1054:Drivers/STM32F1xx_HAL_Driver/Src/stm32f1xx_hal_can.c ****       case(HAL_CAN_STATE_BUSY_RX0):
1055:Drivers/STM32F1xx_HAL_Driver/Src/stm32f1xx_hal_can.c ****         hcan->State = HAL_CAN_STATE_BUSY_RX0_RX1;
 1720              		.loc 1 1055 0
 1721 00b6 6222     		movs	r2, #98
 1722 00b8 80F83C20 		strb	r2, [r0, #60]
1056:Drivers/STM32F1xx_HAL_Driver/Src/stm32f1xx_hal_can.c ****         break;
 1723              		.loc 1 1056 0
 1724 00bc 06E0     		b	.L156
 1725              	.L159:
1057:Drivers/STM32F1xx_HAL_Driver/Src/stm32f1xx_hal_can.c ****       case(HAL_CAN_STATE_BUSY_TX_RX0):
1058:Drivers/STM32F1xx_HAL_Driver/Src/stm32f1xx_hal_can.c ****         hcan->State = HAL_CAN_STATE_BUSY_TX_RX0_RX1;
 1726              		.loc 1 1058 0
 1727 00be 7222     		movs	r2, #114
 1728 00c0 80F83C20 		strb	r2, [r0, #60]
1059:Drivers/STM32F1xx_HAL_Driver/Src/stm32f1xx_hal_can.c ****         break;
 1729              		.loc 1 1059 0
 1730 00c4 02E0     		b	.L156
 1731              	.L172:
1060:Drivers/STM32F1xx_HAL_Driver/Src/stm32f1xx_hal_can.c ****       default: /* HAL_CAN_STATE_READY */
1061:Drivers/STM32F1xx_HAL_Driver/Src/stm32f1xx_hal_can.c ****         hcan->State = HAL_CAN_STATE_BUSY_RX1;
 1732              		.loc 1 1061 0
 1733 00c6 3222     		movs	r2, #50
 1734 00c8 80F83C20 		strb	r2, [r0, #60]
 1735              	.L156:
1062:Drivers/STM32F1xx_HAL_Driver/Src/stm32f1xx_hal_can.c ****         break;
1063:Drivers/STM32F1xx_HAL_Driver/Src/stm32f1xx_hal_can.c ****     }
1064:Drivers/STM32F1xx_HAL_Driver/Src/stm32f1xx_hal_can.c ****   }
1065:Drivers/STM32F1xx_HAL_Driver/Src/stm32f1xx_hal_can.c ****   /* Set CAN error code to none */
1066:Drivers/STM32F1xx_HAL_Driver/Src/stm32f1xx_hal_can.c ****   hcan->ErrorCode = HAL_CAN_ERROR_NONE;
 1736              		.loc 1 1066 0
 1737 00cc 0021     		movs	r1, #0
 1738              	.LVL101:
 1739 00ce 0164     		str	r1, [r0, #64]
1067:Drivers/STM32F1xx_HAL_Driver/Src/stm32f1xx_hal_can.c **** 
1068:Drivers/STM32F1xx_HAL_Driver/Src/stm32f1xx_hal_can.c **** 
1069:Drivers/STM32F1xx_HAL_Driver/Src/stm32f1xx_hal_can.c ****   /* Enable interrupts: */
1070:Drivers/STM32F1xx_HAL_Driver/Src/stm32f1xx_hal_can.c ****   /*  - Enable Error warning Interrupt */
ARM GAS  /tmp/ccRsISvi.s 			page 52


1071:Drivers/STM32F1xx_HAL_Driver/Src/stm32f1xx_hal_can.c ****   /*  - Enable Error passive Interrupt */
1072:Drivers/STM32F1xx_HAL_Driver/Src/stm32f1xx_hal_can.c ****   /*  - Enable Bus-off Interrupt */
1073:Drivers/STM32F1xx_HAL_Driver/Src/stm32f1xx_hal_can.c ****   /*  - Enable Last error code Interrupt */
1074:Drivers/STM32F1xx_HAL_Driver/Src/stm32f1xx_hal_can.c ****   /*  - Enable Error Interrupt */
1075:Drivers/STM32F1xx_HAL_Driver/Src/stm32f1xx_hal_can.c ****   /*  - Enable Transmit mailbox empty Interrupt */
1076:Drivers/STM32F1xx_HAL_Driver/Src/stm32f1xx_hal_can.c ****   __HAL_CAN_ENABLE_IT(hcan, CAN_IT_EWG |
 1740              		.loc 1 1076 0
 1741 00d0 0468     		ldr	r4, [r0]
 1742 00d2 6269     		ldr	r2, [r4, #20]
 1743 00d4 42F40F42 		orr	r2, r2, #36608
 1744 00d8 42F00102 		orr	r2, r2, #1
 1745 00dc 6261     		str	r2, [r4, #20]
1077:Drivers/STM32F1xx_HAL_Driver/Src/stm32f1xx_hal_can.c ****                             CAN_IT_EPV |
1078:Drivers/STM32F1xx_HAL_Driver/Src/stm32f1xx_hal_can.c ****                             CAN_IT_BOF |
1079:Drivers/STM32F1xx_HAL_Driver/Src/stm32f1xx_hal_can.c ****                             CAN_IT_LEC |
1080:Drivers/STM32F1xx_HAL_Driver/Src/stm32f1xx_hal_can.c ****                             CAN_IT_ERR |
1081:Drivers/STM32F1xx_HAL_Driver/Src/stm32f1xx_hal_can.c ****                             CAN_IT_TME  );
1082:Drivers/STM32F1xx_HAL_Driver/Src/stm32f1xx_hal_can.c ****   
1083:Drivers/STM32F1xx_HAL_Driver/Src/stm32f1xx_hal_can.c ****    /* Process unlocked */
1084:Drivers/STM32F1xx_HAL_Driver/Src/stm32f1xx_hal_can.c ****    __HAL_UNLOCK(hcan);
 1746              		.loc 1 1084 0
 1747 00de 80F83D10 		strb	r1, [r0, #61]
1085:Drivers/STM32F1xx_HAL_Driver/Src/stm32f1xx_hal_can.c **** 
1086:Drivers/STM32F1xx_HAL_Driver/Src/stm32f1xx_hal_can.c ****   if(FIFONumber == CAN_FIFO0)
 1748              		.loc 1 1086 0
 1749 00e2 33B9     		cbnz	r3, .L161
1087:Drivers/STM32F1xx_HAL_Driver/Src/stm32f1xx_hal_can.c ****   {
1088:Drivers/STM32F1xx_HAL_Driver/Src/stm32f1xx_hal_can.c ****     /* Enable FIFO 0 overrun and message pending Interrupt */
1089:Drivers/STM32F1xx_HAL_Driver/Src/stm32f1xx_hal_can.c ****     __HAL_CAN_ENABLE_IT(hcan, CAN_IT_FOV0 | CAN_IT_FMP0);
 1750              		.loc 1 1089 0
 1751 00e4 0268     		ldr	r2, [r0]
 1752 00e6 5369     		ldr	r3, [r2, #20]
 1753 00e8 43F00A03 		orr	r3, r3, #10
 1754 00ec 5361     		str	r3, [r2, #20]
1090:Drivers/STM32F1xx_HAL_Driver/Src/stm32f1xx_hal_can.c ****   }
1091:Drivers/STM32F1xx_HAL_Driver/Src/stm32f1xx_hal_can.c ****   else
1092:Drivers/STM32F1xx_HAL_Driver/Src/stm32f1xx_hal_can.c ****   {
1093:Drivers/STM32F1xx_HAL_Driver/Src/stm32f1xx_hal_can.c ****     /* Enable FIFO 1 overrun and message pending Interrupt */
1094:Drivers/STM32F1xx_HAL_Driver/Src/stm32f1xx_hal_can.c ****     __HAL_CAN_ENABLE_IT(hcan, CAN_IT_FOV1 | CAN_IT_FMP1);
1095:Drivers/STM32F1xx_HAL_Driver/Src/stm32f1xx_hal_can.c ****   }
1096:Drivers/STM32F1xx_HAL_Driver/Src/stm32f1xx_hal_can.c **** 
1097:Drivers/STM32F1xx_HAL_Driver/Src/stm32f1xx_hal_can.c ****   /* Return function status */
1098:Drivers/STM32F1xx_HAL_Driver/Src/stm32f1xx_hal_can.c ****   return HAL_OK;
 1755              		.loc 1 1098 0
 1756 00ee 0846     		mov	r0, r1
 1757              	.LVL102:
 1758 00f0 18E0     		b	.L149
 1759              	.LVL103:
 1760              	.L161:
1094:Drivers/STM32F1xx_HAL_Driver/Src/stm32f1xx_hal_can.c ****   }
 1761              		.loc 1 1094 0
 1762 00f2 0268     		ldr	r2, [r0]
 1763 00f4 5369     		ldr	r3, [r2, #20]
 1764 00f6 43F05003 		orr	r3, r3, #80
 1765 00fa 5361     		str	r3, [r2, #20]
 1766              		.loc 1 1098 0
 1767 00fc 0020     		movs	r0, #0
ARM GAS  /tmp/ccRsISvi.s 			page 53


 1768              	.LVL104:
 1769 00fe 11E0     		b	.L149
 1770              	.LVL105:
 1771              	.L162:
 1772              	.LCFI13:
 1773              		.cfi_def_cfa_offset 0
 1774              		.cfi_restore 4
1013:Drivers/STM32F1xx_HAL_Driver/Src/stm32f1xx_hal_can.c ****   }
 1775              		.loc 1 1013 0
 1776 0100 0220     		movs	r0, #2
 1777              	.LVL106:
 1778 0102 7047     		bx	lr
 1779              	.LVL107:
 1780              	.L163:
 1781 0104 0220     		movs	r0, #2
 1782              	.LVL108:
 1783 0106 7047     		bx	lr
 1784              	.LVL109:
 1785              	.L164:
 1786 0108 0220     		movs	r0, #2
 1787              	.LVL110:
 1788 010a 7047     		bx	lr
 1789              	.LVL111:
 1790              	.L165:
 1791 010c 0220     		movs	r0, #2
 1792              	.LVL112:
1099:Drivers/STM32F1xx_HAL_Driver/Src/stm32f1xx_hal_can.c **** }
 1793              		.loc 1 1099 0
 1794 010e 7047     		bx	lr
 1795              	.LVL113:
 1796              	.L166:
1022:Drivers/STM32F1xx_HAL_Driver/Src/stm32f1xx_hal_can.c ****   }
 1797              		.loc 1 1022 0
 1798 0110 0220     		movs	r0, #2
 1799              	.LVL114:
 1800 0112 7047     		bx	lr
 1801              	.LVL115:
 1802              	.L167:
 1803 0114 0220     		movs	r0, #2
 1804              	.LVL116:
 1805 0116 7047     		bx	lr
 1806              	.LVL117:
 1807              	.L168:
 1808 0118 0220     		movs	r0, #2
 1809              	.LVL118:
 1810 011a 7047     		bx	lr
 1811              	.LVL119:
 1812              	.L169:
 1813 011c 0220     		movs	r0, #2
 1814              	.LVL120:
 1815 011e 7047     		bx	lr
 1816              	.LVL121:
 1817              	.L170:
1026:Drivers/STM32F1xx_HAL_Driver/Src/stm32f1xx_hal_can.c **** 
 1818              		.loc 1 1026 0
 1819 0120 0220     		movs	r0, #2
 1820              	.LVL122:
ARM GAS  /tmp/ccRsISvi.s 			page 54


 1821 0122 7047     		bx	lr
 1822              	.LVL123:
 1823              	.L149:
 1824              	.LCFI14:
 1825              		.cfi_def_cfa_offset 4
 1826              		.cfi_offset 4, -4
 1827              		.loc 1 1099 0
 1828 0124 5DF8044B 		ldr	r4, [sp], #4
 1829              	.LCFI15:
 1830              		.cfi_restore 4
 1831              		.cfi_def_cfa_offset 0
 1832 0128 7047     		bx	lr
 1833              		.cfi_endproc
 1834              	.LFE71:
 1836 012a 00BF     		.section	.text.HAL_CAN_Sleep,"ax",%progbits
 1837              		.align	2
 1838              		.global	HAL_CAN_Sleep
 1839              		.thumb
 1840              		.thumb_func
 1842              	HAL_CAN_Sleep:
 1843              	.LFB72:
1100:Drivers/STM32F1xx_HAL_Driver/Src/stm32f1xx_hal_can.c **** 
1101:Drivers/STM32F1xx_HAL_Driver/Src/stm32f1xx_hal_can.c **** /**
1102:Drivers/STM32F1xx_HAL_Driver/Src/stm32f1xx_hal_can.c ****   * @brief  Enters the Sleep (low power) mode.
1103:Drivers/STM32F1xx_HAL_Driver/Src/stm32f1xx_hal_can.c ****   * @param  hcan: pointer to a CAN_HandleTypeDef structure that contains
1104:Drivers/STM32F1xx_HAL_Driver/Src/stm32f1xx_hal_can.c ****   *         the configuration information for the specified CAN.
1105:Drivers/STM32F1xx_HAL_Driver/Src/stm32f1xx_hal_can.c ****   * @retval HAL status.
1106:Drivers/STM32F1xx_HAL_Driver/Src/stm32f1xx_hal_can.c ****   */
1107:Drivers/STM32F1xx_HAL_Driver/Src/stm32f1xx_hal_can.c **** HAL_StatusTypeDef HAL_CAN_Sleep(CAN_HandleTypeDef* hcan)
1108:Drivers/STM32F1xx_HAL_Driver/Src/stm32f1xx_hal_can.c **** {
 1844              		.loc 1 1108 0
 1845              		.cfi_startproc
 1846              		@ args = 0, pretend = 0, frame = 0
 1847              		@ frame_needed = 0, uses_anonymous_args = 0
 1848              	.LVL124:
 1849 0000 38B5     		push	{r3, r4, r5, lr}
 1850              	.LCFI16:
 1851              		.cfi_def_cfa_offset 16
 1852              		.cfi_offset 3, -16
 1853              		.cfi_offset 4, -12
 1854              		.cfi_offset 5, -8
 1855              		.cfi_offset 14, -4
 1856              	.LVL125:
1109:Drivers/STM32F1xx_HAL_Driver/Src/stm32f1xx_hal_can.c ****   uint32_t tickstart = 0U;
1110:Drivers/STM32F1xx_HAL_Driver/Src/stm32f1xx_hal_can.c ****    
1111:Drivers/STM32F1xx_HAL_Driver/Src/stm32f1xx_hal_can.c ****   /* Process locked */
1112:Drivers/STM32F1xx_HAL_Driver/Src/stm32f1xx_hal_can.c ****   __HAL_LOCK(hcan);
 1857              		.loc 1 1112 0
 1858 0002 90F83D30 		ldrb	r3, [r0, #61]	@ zero_extendqisi2
 1859 0006 012B     		cmp	r3, #1
 1860 0008 3BD0     		beq	.L181
 1861              		.loc 1 1112 0 is_stmt 0 discriminator 2
 1862 000a 0123     		movs	r3, #1
 1863 000c 80F83D30 		strb	r3, [r0, #61]
1113:Drivers/STM32F1xx_HAL_Driver/Src/stm32f1xx_hal_can.c ****   
1114:Drivers/STM32F1xx_HAL_Driver/Src/stm32f1xx_hal_can.c ****   /* Change CAN state */
1115:Drivers/STM32F1xx_HAL_Driver/Src/stm32f1xx_hal_can.c ****   hcan->State = HAL_CAN_STATE_BUSY; 
ARM GAS  /tmp/ccRsISvi.s 			page 55


 1864              		.loc 1 1115 0 is_stmt 1 discriminator 2
 1865 0010 0223     		movs	r3, #2
 1866 0012 80F83C30 		strb	r3, [r0, #60]
1116:Drivers/STM32F1xx_HAL_Driver/Src/stm32f1xx_hal_can.c ****     
1117:Drivers/STM32F1xx_HAL_Driver/Src/stm32f1xx_hal_can.c ****   /* Request Sleep mode */
1118:Drivers/STM32F1xx_HAL_Driver/Src/stm32f1xx_hal_can.c ****   MODIFY_REG(hcan->Instance->MCR,
 1867              		.loc 1 1118 0 discriminator 2
 1868 0016 0268     		ldr	r2, [r0]
 1869 0018 1368     		ldr	r3, [r2]
 1870 001a 23F00303 		bic	r3, r3, #3
 1871 001e 43F00203 		orr	r3, r3, #2
 1872 0022 1360     		str	r3, [r2]
1119:Drivers/STM32F1xx_HAL_Driver/Src/stm32f1xx_hal_can.c ****              CAN_MCR_INRQ       ,
1120:Drivers/STM32F1xx_HAL_Driver/Src/stm32f1xx_hal_can.c ****              CAN_MCR_SLEEP       );
1121:Drivers/STM32F1xx_HAL_Driver/Src/stm32f1xx_hal_can.c **** 
1122:Drivers/STM32F1xx_HAL_Driver/Src/stm32f1xx_hal_can.c ****   /* Sleep mode status */
1123:Drivers/STM32F1xx_HAL_Driver/Src/stm32f1xx_hal_can.c ****   if (HAL_IS_BIT_CLR(hcan->Instance->MSR, CAN_MSR_SLAK) ||
 1873              		.loc 1 1123 0 discriminator 2
 1874 0024 0368     		ldr	r3, [r0]
 1875 0026 5A68     		ldr	r2, [r3, #4]
 1876 0028 12F0020F 		tst	r2, #2
 1877 002c 03D0     		beq	.L177
1124:Drivers/STM32F1xx_HAL_Driver/Src/stm32f1xx_hal_can.c ****       HAL_IS_BIT_SET(hcan->Instance->MSR, CAN_MSR_INAK)   )
 1878              		.loc 1 1124 0 discriminator 1
 1879 002e 5B68     		ldr	r3, [r3, #4]
1123:Drivers/STM32F1xx_HAL_Driver/Src/stm32f1xx_hal_can.c ****       HAL_IS_BIT_SET(hcan->Instance->MSR, CAN_MSR_INAK)   )
 1880              		.loc 1 1123 0 discriminator 1
 1881 0030 13F0010F 		tst	r3, #1
 1882 0034 04D0     		beq	.L178
 1883              	.L177:
1125:Drivers/STM32F1xx_HAL_Driver/Src/stm32f1xx_hal_can.c ****   {
1126:Drivers/STM32F1xx_HAL_Driver/Src/stm32f1xx_hal_can.c ****     /* Process unlocked */
1127:Drivers/STM32F1xx_HAL_Driver/Src/stm32f1xx_hal_can.c ****     __HAL_UNLOCK(hcan);
 1884              		.loc 1 1127 0
 1885 0036 0023     		movs	r3, #0
 1886 0038 80F83D30 		strb	r3, [r0, #61]
1128:Drivers/STM32F1xx_HAL_Driver/Src/stm32f1xx_hal_can.c **** 
1129:Drivers/STM32F1xx_HAL_Driver/Src/stm32f1xx_hal_can.c ****     /* Return function status */
1130:Drivers/STM32F1xx_HAL_Driver/Src/stm32f1xx_hal_can.c ****     return HAL_ERROR;
 1887              		.loc 1 1130 0
 1888 003c 0120     		movs	r0, #1
 1889              	.LVL126:
 1890 003e 38BD     		pop	{r3, r4, r5, pc}
 1891              	.LVL127:
 1892              	.L178:
 1893 0040 0446     		mov	r4, r0
1131:Drivers/STM32F1xx_HAL_Driver/Src/stm32f1xx_hal_can.c ****   }
1132:Drivers/STM32F1xx_HAL_Driver/Src/stm32f1xx_hal_can.c ****   
1133:Drivers/STM32F1xx_HAL_Driver/Src/stm32f1xx_hal_can.c ****   /* Get tick */
1134:Drivers/STM32F1xx_HAL_Driver/Src/stm32f1xx_hal_can.c ****   tickstart = HAL_GetTick();
 1894              		.loc 1 1134 0
 1895 0042 FFF7FEFF 		bl	HAL_GetTick
 1896              	.LVL128:
 1897 0046 0546     		mov	r5, r0
 1898              	.LVL129:
1135:Drivers/STM32F1xx_HAL_Driver/Src/stm32f1xx_hal_can.c ****   
1136:Drivers/STM32F1xx_HAL_Driver/Src/stm32f1xx_hal_can.c ****   /* Wait the acknowledge */
ARM GAS  /tmp/ccRsISvi.s 			page 56


1137:Drivers/STM32F1xx_HAL_Driver/Src/stm32f1xx_hal_can.c ****   while (HAL_IS_BIT_CLR(hcan->Instance->MSR, CAN_MSR_SLAK) ||
 1899              		.loc 1 1137 0
 1900 0048 0BE0     		b	.L179
 1901              	.LVL130:
 1902              	.L180:
1138:Drivers/STM32F1xx_HAL_Driver/Src/stm32f1xx_hal_can.c ****          HAL_IS_BIT_SET(hcan->Instance->MSR, CAN_MSR_INAK))
1139:Drivers/STM32F1xx_HAL_Driver/Src/stm32f1xx_hal_can.c ****   {
1140:Drivers/STM32F1xx_HAL_Driver/Src/stm32f1xx_hal_can.c ****     if((HAL_GetTick()-tickstart) > CAN_TIMEOUT_VALUE)
 1903              		.loc 1 1140 0
 1904 004a FFF7FEFF 		bl	HAL_GetTick
 1905              	.LVL131:
 1906 004e 401B     		subs	r0, r0, r5
 1907 0050 0A28     		cmp	r0, #10
 1908 0052 06D9     		bls	.L179
1141:Drivers/STM32F1xx_HAL_Driver/Src/stm32f1xx_hal_can.c ****     {
1142:Drivers/STM32F1xx_HAL_Driver/Src/stm32f1xx_hal_can.c ****       hcan->State = HAL_CAN_STATE_TIMEOUT;
 1909              		.loc 1 1142 0
 1910 0054 0320     		movs	r0, #3
 1911 0056 84F83C00 		strb	r0, [r4, #60]
1143:Drivers/STM32F1xx_HAL_Driver/Src/stm32f1xx_hal_can.c **** 
1144:Drivers/STM32F1xx_HAL_Driver/Src/stm32f1xx_hal_can.c ****       /* Process unlocked */
1145:Drivers/STM32F1xx_HAL_Driver/Src/stm32f1xx_hal_can.c ****       __HAL_UNLOCK(hcan);
 1912              		.loc 1 1145 0
 1913 005a 0023     		movs	r3, #0
 1914 005c 84F83D30 		strb	r3, [r4, #61]
1146:Drivers/STM32F1xx_HAL_Driver/Src/stm32f1xx_hal_can.c **** 
1147:Drivers/STM32F1xx_HAL_Driver/Src/stm32f1xx_hal_can.c ****       return HAL_TIMEOUT;
 1915              		.loc 1 1147 0
 1916 0060 38BD     		pop	{r3, r4, r5, pc}
 1917              	.LVL132:
 1918              	.L179:
1137:Drivers/STM32F1xx_HAL_Driver/Src/stm32f1xx_hal_can.c ****          HAL_IS_BIT_SET(hcan->Instance->MSR, CAN_MSR_INAK))
 1919              		.loc 1 1137 0
 1920 0062 2368     		ldr	r3, [r4]
 1921 0064 5A68     		ldr	r2, [r3, #4]
 1922 0066 12F0020F 		tst	r2, #2
 1923 006a EED0     		beq	.L180
1138:Drivers/STM32F1xx_HAL_Driver/Src/stm32f1xx_hal_can.c ****   {
 1924              		.loc 1 1138 0 discriminator 1
 1925 006c 5B68     		ldr	r3, [r3, #4]
1137:Drivers/STM32F1xx_HAL_Driver/Src/stm32f1xx_hal_can.c ****          HAL_IS_BIT_SET(hcan->Instance->MSR, CAN_MSR_INAK))
 1926              		.loc 1 1137 0 discriminator 1
 1927 006e 13F0010F 		tst	r3, #1
 1928 0072 EAD1     		bne	.L180
1148:Drivers/STM32F1xx_HAL_Driver/Src/stm32f1xx_hal_can.c ****     }
1149:Drivers/STM32F1xx_HAL_Driver/Src/stm32f1xx_hal_can.c ****   }
1150:Drivers/STM32F1xx_HAL_Driver/Src/stm32f1xx_hal_can.c ****   
1151:Drivers/STM32F1xx_HAL_Driver/Src/stm32f1xx_hal_can.c ****   /* Change CAN state */
1152:Drivers/STM32F1xx_HAL_Driver/Src/stm32f1xx_hal_can.c ****   hcan->State = HAL_CAN_STATE_READY;
 1929              		.loc 1 1152 0
 1930 0074 0123     		movs	r3, #1
 1931 0076 84F83C30 		strb	r3, [r4, #60]
1153:Drivers/STM32F1xx_HAL_Driver/Src/stm32f1xx_hal_can.c ****   
1154:Drivers/STM32F1xx_HAL_Driver/Src/stm32f1xx_hal_can.c ****   /* Process unlocked */
1155:Drivers/STM32F1xx_HAL_Driver/Src/stm32f1xx_hal_can.c ****   __HAL_UNLOCK(hcan);
 1932              		.loc 1 1155 0
 1933 007a 0020     		movs	r0, #0
ARM GAS  /tmp/ccRsISvi.s 			page 57


 1934 007c 84F83D00 		strb	r0, [r4, #61]
1156:Drivers/STM32F1xx_HAL_Driver/Src/stm32f1xx_hal_can.c ****   
1157:Drivers/STM32F1xx_HAL_Driver/Src/stm32f1xx_hal_can.c ****   /* Return function status */
1158:Drivers/STM32F1xx_HAL_Driver/Src/stm32f1xx_hal_can.c ****   return HAL_OK;
 1935              		.loc 1 1158 0
 1936 0080 38BD     		pop	{r3, r4, r5, pc}
 1937              	.LVL133:
 1938              	.L181:
1112:Drivers/STM32F1xx_HAL_Driver/Src/stm32f1xx_hal_can.c ****   
 1939              		.loc 1 1112 0
 1940 0082 0220     		movs	r0, #2
 1941              	.LVL134:
1159:Drivers/STM32F1xx_HAL_Driver/Src/stm32f1xx_hal_can.c **** }
 1942              		.loc 1 1159 0
 1943 0084 38BD     		pop	{r3, r4, r5, pc}
 1944              		.cfi_endproc
 1945              	.LFE72:
 1947 0086 00BF     		.section	.text.HAL_CAN_WakeUp,"ax",%progbits
 1948              		.align	2
 1949              		.global	HAL_CAN_WakeUp
 1950              		.thumb
 1951              		.thumb_func
 1953              	HAL_CAN_WakeUp:
 1954              	.LFB73:
1160:Drivers/STM32F1xx_HAL_Driver/Src/stm32f1xx_hal_can.c **** 
1161:Drivers/STM32F1xx_HAL_Driver/Src/stm32f1xx_hal_can.c **** /**
1162:Drivers/STM32F1xx_HAL_Driver/Src/stm32f1xx_hal_can.c ****   * @brief  Wakes up the CAN peripheral from sleep mode, after that the CAN peripheral
1163:Drivers/STM32F1xx_HAL_Driver/Src/stm32f1xx_hal_can.c ****   *         is in the normal mode.
1164:Drivers/STM32F1xx_HAL_Driver/Src/stm32f1xx_hal_can.c ****   * @param  hcan: pointer to a CAN_HandleTypeDef structure that contains
1165:Drivers/STM32F1xx_HAL_Driver/Src/stm32f1xx_hal_can.c ****   *         the configuration information for the specified CAN.
1166:Drivers/STM32F1xx_HAL_Driver/Src/stm32f1xx_hal_can.c ****   * @retval HAL status.
1167:Drivers/STM32F1xx_HAL_Driver/Src/stm32f1xx_hal_can.c ****   */
1168:Drivers/STM32F1xx_HAL_Driver/Src/stm32f1xx_hal_can.c **** HAL_StatusTypeDef HAL_CAN_WakeUp(CAN_HandleTypeDef* hcan)
1169:Drivers/STM32F1xx_HAL_Driver/Src/stm32f1xx_hal_can.c **** {
 1955              		.loc 1 1169 0
 1956              		.cfi_startproc
 1957              		@ args = 0, pretend = 0, frame = 0
 1958              		@ frame_needed = 0, uses_anonymous_args = 0
 1959              	.LVL135:
 1960 0000 38B5     		push	{r3, r4, r5, lr}
 1961              	.LCFI17:
 1962              		.cfi_def_cfa_offset 16
 1963              		.cfi_offset 3, -16
 1964              		.cfi_offset 4, -12
 1965              		.cfi_offset 5, -8
 1966              		.cfi_offset 14, -4
 1967              	.LVL136:
1170:Drivers/STM32F1xx_HAL_Driver/Src/stm32f1xx_hal_can.c ****   uint32_t tickstart = 0U;
1171:Drivers/STM32F1xx_HAL_Driver/Src/stm32f1xx_hal_can.c ****     
1172:Drivers/STM32F1xx_HAL_Driver/Src/stm32f1xx_hal_can.c ****   /* Process locked */
1173:Drivers/STM32F1xx_HAL_Driver/Src/stm32f1xx_hal_can.c ****   __HAL_LOCK(hcan);
 1968              		.loc 1 1173 0
 1969 0002 90F83D30 		ldrb	r3, [r0, #61]	@ zero_extendqisi2
 1970 0006 012B     		cmp	r3, #1
 1971 0008 30D0     		beq	.L188
 1972 000a 0446     		mov	r4, r0
 1973              		.loc 1 1173 0 is_stmt 0 discriminator 2
ARM GAS  /tmp/ccRsISvi.s 			page 58


 1974 000c 0123     		movs	r3, #1
 1975 000e 80F83D30 		strb	r3, [r0, #61]
1174:Drivers/STM32F1xx_HAL_Driver/Src/stm32f1xx_hal_can.c ****   
1175:Drivers/STM32F1xx_HAL_Driver/Src/stm32f1xx_hal_can.c ****   /* Change CAN state */
1176:Drivers/STM32F1xx_HAL_Driver/Src/stm32f1xx_hal_can.c ****   hcan->State = HAL_CAN_STATE_BUSY;  
 1976              		.loc 1 1176 0 is_stmt 1 discriminator 2
 1977 0012 0223     		movs	r3, #2
 1978 0014 80F83C30 		strb	r3, [r0, #60]
1177:Drivers/STM32F1xx_HAL_Driver/Src/stm32f1xx_hal_can.c ****  
1178:Drivers/STM32F1xx_HAL_Driver/Src/stm32f1xx_hal_can.c ****   /* Wake up request */
1179:Drivers/STM32F1xx_HAL_Driver/Src/stm32f1xx_hal_can.c ****   CLEAR_BIT(hcan->Instance->MCR, CAN_MCR_SLEEP);
 1979              		.loc 1 1179 0 discriminator 2
 1980 0018 0268     		ldr	r2, [r0]
 1981 001a 1368     		ldr	r3, [r2]
 1982 001c 23F00203 		bic	r3, r3, #2
 1983 0020 1360     		str	r3, [r2]
1180:Drivers/STM32F1xx_HAL_Driver/Src/stm32f1xx_hal_can.c ****     
1181:Drivers/STM32F1xx_HAL_Driver/Src/stm32f1xx_hal_can.c ****   /* Get timeout */
1182:Drivers/STM32F1xx_HAL_Driver/Src/stm32f1xx_hal_can.c ****   tickstart = HAL_GetTick();   
 1984              		.loc 1 1182 0 discriminator 2
 1985 0022 FFF7FEFF 		bl	HAL_GetTick
 1986              	.LVL137:
 1987 0026 0546     		mov	r5, r0
 1988              	.LVL138:
1183:Drivers/STM32F1xx_HAL_Driver/Src/stm32f1xx_hal_can.c ****   
1184:Drivers/STM32F1xx_HAL_Driver/Src/stm32f1xx_hal_can.c ****   /* Sleep mode status */
1185:Drivers/STM32F1xx_HAL_Driver/Src/stm32f1xx_hal_can.c ****   while((hcan->Instance->MSR & CAN_MSR_SLAK) == CAN_MSR_SLAK)
 1989              		.loc 1 1185 0 discriminator 2
 1990 0028 0BE0     		b	.L185
 1991              	.LVL139:
 1992              	.L186:
1186:Drivers/STM32F1xx_HAL_Driver/Src/stm32f1xx_hal_can.c ****   {
1187:Drivers/STM32F1xx_HAL_Driver/Src/stm32f1xx_hal_can.c ****     if((HAL_GetTick()-tickstart) > CAN_TIMEOUT_VALUE)
 1993              		.loc 1 1187 0
 1994 002a FFF7FEFF 		bl	HAL_GetTick
 1995              	.LVL140:
 1996 002e 401B     		subs	r0, r0, r5
 1997 0030 0A28     		cmp	r0, #10
 1998 0032 06D9     		bls	.L185
1188:Drivers/STM32F1xx_HAL_Driver/Src/stm32f1xx_hal_can.c ****     {
1189:Drivers/STM32F1xx_HAL_Driver/Src/stm32f1xx_hal_can.c ****       hcan->State= HAL_CAN_STATE_TIMEOUT;
 1999              		.loc 1 1189 0
 2000 0034 0320     		movs	r0, #3
 2001 0036 84F83C00 		strb	r0, [r4, #60]
1190:Drivers/STM32F1xx_HAL_Driver/Src/stm32f1xx_hal_can.c ****       /* Process unlocked */
1191:Drivers/STM32F1xx_HAL_Driver/Src/stm32f1xx_hal_can.c ****       __HAL_UNLOCK(hcan);
 2002              		.loc 1 1191 0
 2003 003a 0023     		movs	r3, #0
 2004 003c 84F83D30 		strb	r3, [r4, #61]
1192:Drivers/STM32F1xx_HAL_Driver/Src/stm32f1xx_hal_can.c ****       return HAL_TIMEOUT;
 2005              		.loc 1 1192 0
 2006 0040 38BD     		pop	{r3, r4, r5, pc}
 2007              	.LVL141:
 2008              	.L185:
1185:Drivers/STM32F1xx_HAL_Driver/Src/stm32f1xx_hal_can.c ****   {
 2009              		.loc 1 1185 0
 2010 0042 2368     		ldr	r3, [r4]
ARM GAS  /tmp/ccRsISvi.s 			page 59


 2011 0044 5A68     		ldr	r2, [r3, #4]
 2012 0046 12F0020F 		tst	r2, #2
 2013 004a EED1     		bne	.L186
1193:Drivers/STM32F1xx_HAL_Driver/Src/stm32f1xx_hal_can.c ****     }
1194:Drivers/STM32F1xx_HAL_Driver/Src/stm32f1xx_hal_can.c ****   }
1195:Drivers/STM32F1xx_HAL_Driver/Src/stm32f1xx_hal_can.c ****   if(HAL_IS_BIT_SET(hcan->Instance->MSR, CAN_MSR_SLAK))
 2014              		.loc 1 1195 0
 2015 004c 5B68     		ldr	r3, [r3, #4]
 2016 004e 13F0020F 		tst	r3, #2
 2017 0052 04D0     		beq	.L187
1196:Drivers/STM32F1xx_HAL_Driver/Src/stm32f1xx_hal_can.c ****   {
1197:Drivers/STM32F1xx_HAL_Driver/Src/stm32f1xx_hal_can.c ****     /* Process unlocked */
1198:Drivers/STM32F1xx_HAL_Driver/Src/stm32f1xx_hal_can.c ****     __HAL_UNLOCK(hcan);
 2018              		.loc 1 1198 0
 2019 0054 0023     		movs	r3, #0
 2020 0056 84F83D30 		strb	r3, [r4, #61]
1199:Drivers/STM32F1xx_HAL_Driver/Src/stm32f1xx_hal_can.c **** 
1200:Drivers/STM32F1xx_HAL_Driver/Src/stm32f1xx_hal_can.c ****     /* Return function status */
1201:Drivers/STM32F1xx_HAL_Driver/Src/stm32f1xx_hal_can.c ****     return HAL_ERROR;
 2021              		.loc 1 1201 0
 2022 005a 0120     		movs	r0, #1
 2023 005c 38BD     		pop	{r3, r4, r5, pc}
 2024              	.LVL142:
 2025              	.L187:
1202:Drivers/STM32F1xx_HAL_Driver/Src/stm32f1xx_hal_can.c ****   }
1203:Drivers/STM32F1xx_HAL_Driver/Src/stm32f1xx_hal_can.c ****   
1204:Drivers/STM32F1xx_HAL_Driver/Src/stm32f1xx_hal_can.c ****   /* Change CAN state */
1205:Drivers/STM32F1xx_HAL_Driver/Src/stm32f1xx_hal_can.c ****   hcan->State = HAL_CAN_STATE_READY; 
 2026              		.loc 1 1205 0
 2027 005e 0123     		movs	r3, #1
 2028 0060 84F83C30 		strb	r3, [r4, #60]
1206:Drivers/STM32F1xx_HAL_Driver/Src/stm32f1xx_hal_can.c ****   
1207:Drivers/STM32F1xx_HAL_Driver/Src/stm32f1xx_hal_can.c ****   /* Process unlocked */
1208:Drivers/STM32F1xx_HAL_Driver/Src/stm32f1xx_hal_can.c ****   __HAL_UNLOCK(hcan);
 2029              		.loc 1 1208 0
 2030 0064 0020     		movs	r0, #0
 2031 0066 84F83D00 		strb	r0, [r4, #61]
1209:Drivers/STM32F1xx_HAL_Driver/Src/stm32f1xx_hal_can.c ****   
1210:Drivers/STM32F1xx_HAL_Driver/Src/stm32f1xx_hal_can.c ****   /* Return function status */
1211:Drivers/STM32F1xx_HAL_Driver/Src/stm32f1xx_hal_can.c ****   return HAL_OK;
 2032              		.loc 1 1211 0
 2033 006a 38BD     		pop	{r3, r4, r5, pc}
 2034              	.LVL143:
 2035              	.L188:
1173:Drivers/STM32F1xx_HAL_Driver/Src/stm32f1xx_hal_can.c ****   
 2036              		.loc 1 1173 0
 2037 006c 0220     		movs	r0, #2
 2038              	.LVL144:
1212:Drivers/STM32F1xx_HAL_Driver/Src/stm32f1xx_hal_can.c **** }
 2039              		.loc 1 1212 0
 2040 006e 38BD     		pop	{r3, r4, r5, pc}
 2041              		.cfi_endproc
 2042              	.LFE73:
 2044              		.section	.text.HAL_CAN_TxCpltCallback,"ax",%progbits
 2045              		.align	2
 2046              		.weak	HAL_CAN_TxCpltCallback
 2047              		.thumb
ARM GAS  /tmp/ccRsISvi.s 			page 60


 2048              		.thumb_func
 2050              	HAL_CAN_TxCpltCallback:
 2051              	.LFB75:
1213:Drivers/STM32F1xx_HAL_Driver/Src/stm32f1xx_hal_can.c **** 
1214:Drivers/STM32F1xx_HAL_Driver/Src/stm32f1xx_hal_can.c **** /**
1215:Drivers/STM32F1xx_HAL_Driver/Src/stm32f1xx_hal_can.c ****   * @brief  Handles CAN interrupt request  
1216:Drivers/STM32F1xx_HAL_Driver/Src/stm32f1xx_hal_can.c ****   * @param  hcan: pointer to a CAN_HandleTypeDef structure that contains
1217:Drivers/STM32F1xx_HAL_Driver/Src/stm32f1xx_hal_can.c ****   *         the configuration information for the specified CAN.
1218:Drivers/STM32F1xx_HAL_Driver/Src/stm32f1xx_hal_can.c ****   * @retval None
1219:Drivers/STM32F1xx_HAL_Driver/Src/stm32f1xx_hal_can.c ****   */
1220:Drivers/STM32F1xx_HAL_Driver/Src/stm32f1xx_hal_can.c **** void HAL_CAN_IRQHandler(CAN_HandleTypeDef* hcan)
1221:Drivers/STM32F1xx_HAL_Driver/Src/stm32f1xx_hal_can.c **** {
1222:Drivers/STM32F1xx_HAL_Driver/Src/stm32f1xx_hal_can.c ****   uint32_t tmp1 = 0U, tmp2 = 0U, tmp3 = 0U;
1223:Drivers/STM32F1xx_HAL_Driver/Src/stm32f1xx_hal_can.c ****   uint32_t errorcode = HAL_CAN_ERROR_NONE;
1224:Drivers/STM32F1xx_HAL_Driver/Src/stm32f1xx_hal_can.c **** 
1225:Drivers/STM32F1xx_HAL_Driver/Src/stm32f1xx_hal_can.c ****   /* Check Overrun flag for FIFO0 */
1226:Drivers/STM32F1xx_HAL_Driver/Src/stm32f1xx_hal_can.c ****   tmp1 = __HAL_CAN_GET_FLAG(hcan, CAN_FLAG_FOV0);
1227:Drivers/STM32F1xx_HAL_Driver/Src/stm32f1xx_hal_can.c ****   tmp2 = __HAL_CAN_GET_IT_SOURCE(hcan, CAN_IT_FOV0);
1228:Drivers/STM32F1xx_HAL_Driver/Src/stm32f1xx_hal_can.c ****   if((tmp1 != 0U) && tmp2)
1229:Drivers/STM32F1xx_HAL_Driver/Src/stm32f1xx_hal_can.c ****   {
1230:Drivers/STM32F1xx_HAL_Driver/Src/stm32f1xx_hal_can.c ****     /* Set CAN error code to FOV0 error */
1231:Drivers/STM32F1xx_HAL_Driver/Src/stm32f1xx_hal_can.c ****     errorcode |= HAL_CAN_ERROR_FOV0;
1232:Drivers/STM32F1xx_HAL_Driver/Src/stm32f1xx_hal_can.c **** 
1233:Drivers/STM32F1xx_HAL_Driver/Src/stm32f1xx_hal_can.c ****     /* Clear FIFO0 Overrun Flag */
1234:Drivers/STM32F1xx_HAL_Driver/Src/stm32f1xx_hal_can.c ****     __HAL_CAN_CLEAR_FLAG(hcan, CAN_FLAG_FOV0);
1235:Drivers/STM32F1xx_HAL_Driver/Src/stm32f1xx_hal_can.c ****   }
1236:Drivers/STM32F1xx_HAL_Driver/Src/stm32f1xx_hal_can.c **** 
1237:Drivers/STM32F1xx_HAL_Driver/Src/stm32f1xx_hal_can.c ****   /* Check Overrun flag for FIFO1 */
1238:Drivers/STM32F1xx_HAL_Driver/Src/stm32f1xx_hal_can.c ****   tmp1 = __HAL_CAN_GET_FLAG(hcan, CAN_FLAG_FOV1);
1239:Drivers/STM32F1xx_HAL_Driver/Src/stm32f1xx_hal_can.c ****   tmp2 = __HAL_CAN_GET_IT_SOURCE(hcan, CAN_IT_FOV1);
1240:Drivers/STM32F1xx_HAL_Driver/Src/stm32f1xx_hal_can.c ****   if((tmp1 != 0U) && tmp2)
1241:Drivers/STM32F1xx_HAL_Driver/Src/stm32f1xx_hal_can.c ****   {
1242:Drivers/STM32F1xx_HAL_Driver/Src/stm32f1xx_hal_can.c ****     /* Set CAN error code to FOV1 error */
1243:Drivers/STM32F1xx_HAL_Driver/Src/stm32f1xx_hal_can.c ****     errorcode |= HAL_CAN_ERROR_FOV1;
1244:Drivers/STM32F1xx_HAL_Driver/Src/stm32f1xx_hal_can.c **** 
1245:Drivers/STM32F1xx_HAL_Driver/Src/stm32f1xx_hal_can.c ****     /* Clear FIFO1 Overrun Flag */
1246:Drivers/STM32F1xx_HAL_Driver/Src/stm32f1xx_hal_can.c ****     __HAL_CAN_CLEAR_FLAG(hcan, CAN_FLAG_FOV1);
1247:Drivers/STM32F1xx_HAL_Driver/Src/stm32f1xx_hal_can.c ****   }
1248:Drivers/STM32F1xx_HAL_Driver/Src/stm32f1xx_hal_can.c **** 
1249:Drivers/STM32F1xx_HAL_Driver/Src/stm32f1xx_hal_can.c ****   /* Check End of transmission flag */
1250:Drivers/STM32F1xx_HAL_Driver/Src/stm32f1xx_hal_can.c ****   if(__HAL_CAN_GET_IT_SOURCE(hcan, CAN_IT_TME))
1251:Drivers/STM32F1xx_HAL_Driver/Src/stm32f1xx_hal_can.c ****   {
1252:Drivers/STM32F1xx_HAL_Driver/Src/stm32f1xx_hal_can.c ****     /* Check Transmit request completion status */
1253:Drivers/STM32F1xx_HAL_Driver/Src/stm32f1xx_hal_can.c ****     tmp1 = __HAL_CAN_TRANSMIT_STATUS(hcan, CAN_TXMAILBOX_0);
1254:Drivers/STM32F1xx_HAL_Driver/Src/stm32f1xx_hal_can.c ****     tmp2 = __HAL_CAN_TRANSMIT_STATUS(hcan, CAN_TXMAILBOX_1);
1255:Drivers/STM32F1xx_HAL_Driver/Src/stm32f1xx_hal_can.c ****     tmp3 = __HAL_CAN_TRANSMIT_STATUS(hcan, CAN_TXMAILBOX_2);
1256:Drivers/STM32F1xx_HAL_Driver/Src/stm32f1xx_hal_can.c ****     if(tmp1 || tmp2 || tmp3)  
1257:Drivers/STM32F1xx_HAL_Driver/Src/stm32f1xx_hal_can.c ****     {
1258:Drivers/STM32F1xx_HAL_Driver/Src/stm32f1xx_hal_can.c ****       tmp1 = __HAL_CAN_GET_FLAG(hcan, CAN_FLAG_TXOK0);
1259:Drivers/STM32F1xx_HAL_Driver/Src/stm32f1xx_hal_can.c ****       tmp2 = __HAL_CAN_GET_FLAG(hcan, CAN_FLAG_TXOK1);
1260:Drivers/STM32F1xx_HAL_Driver/Src/stm32f1xx_hal_can.c ****       tmp3 = __HAL_CAN_GET_FLAG(hcan, CAN_FLAG_TXOK2);
1261:Drivers/STM32F1xx_HAL_Driver/Src/stm32f1xx_hal_can.c ****       /* Check Transmit success */
1262:Drivers/STM32F1xx_HAL_Driver/Src/stm32f1xx_hal_can.c ****       if((tmp1) || (tmp2) || (tmp3))
1263:Drivers/STM32F1xx_HAL_Driver/Src/stm32f1xx_hal_can.c ****       {
1264:Drivers/STM32F1xx_HAL_Driver/Src/stm32f1xx_hal_can.c ****         /* Call transmit function */
1265:Drivers/STM32F1xx_HAL_Driver/Src/stm32f1xx_hal_can.c ****         CAN_Transmit_IT(hcan);
1266:Drivers/STM32F1xx_HAL_Driver/Src/stm32f1xx_hal_can.c ****       }
ARM GAS  /tmp/ccRsISvi.s 			page 61


1267:Drivers/STM32F1xx_HAL_Driver/Src/stm32f1xx_hal_can.c ****       else /* Transmit failure */
1268:Drivers/STM32F1xx_HAL_Driver/Src/stm32f1xx_hal_can.c ****       {
1269:Drivers/STM32F1xx_HAL_Driver/Src/stm32f1xx_hal_can.c ****         /* Set CAN error code to TXFAIL error */
1270:Drivers/STM32F1xx_HAL_Driver/Src/stm32f1xx_hal_can.c ****         errorcode |= HAL_CAN_ERROR_TXFAIL;
1271:Drivers/STM32F1xx_HAL_Driver/Src/stm32f1xx_hal_can.c ****       }
1272:Drivers/STM32F1xx_HAL_Driver/Src/stm32f1xx_hal_can.c **** 
1273:Drivers/STM32F1xx_HAL_Driver/Src/stm32f1xx_hal_can.c ****       /* Clear transmission status flags (RQCPx and TXOKx) */
1274:Drivers/STM32F1xx_HAL_Driver/Src/stm32f1xx_hal_can.c ****       SET_BIT(hcan->Instance->TSR, CAN_TSR_RQCP0  | CAN_TSR_RQCP1  | CAN_TSR_RQCP2 | \
1275:Drivers/STM32F1xx_HAL_Driver/Src/stm32f1xx_hal_can.c ****                                    CAN_FLAG_TXOK0 | CAN_FLAG_TXOK1 | CAN_FLAG_TXOK2);
1276:Drivers/STM32F1xx_HAL_Driver/Src/stm32f1xx_hal_can.c ****     }
1277:Drivers/STM32F1xx_HAL_Driver/Src/stm32f1xx_hal_can.c ****   }
1278:Drivers/STM32F1xx_HAL_Driver/Src/stm32f1xx_hal_can.c ****   
1279:Drivers/STM32F1xx_HAL_Driver/Src/stm32f1xx_hal_can.c ****   tmp1 = __HAL_CAN_MSG_PENDING(hcan, CAN_FIFO0);
1280:Drivers/STM32F1xx_HAL_Driver/Src/stm32f1xx_hal_can.c ****   tmp2 = __HAL_CAN_GET_IT_SOURCE(hcan, CAN_IT_FMP0);
1281:Drivers/STM32F1xx_HAL_Driver/Src/stm32f1xx_hal_can.c ****   /* Check End of reception flag for FIFO0 */
1282:Drivers/STM32F1xx_HAL_Driver/Src/stm32f1xx_hal_can.c ****   if((tmp1 != 0U) && tmp2)
1283:Drivers/STM32F1xx_HAL_Driver/Src/stm32f1xx_hal_can.c ****   {
1284:Drivers/STM32F1xx_HAL_Driver/Src/stm32f1xx_hal_can.c ****     /* Call receive function */
1285:Drivers/STM32F1xx_HAL_Driver/Src/stm32f1xx_hal_can.c ****     CAN_Receive_IT(hcan, CAN_FIFO0);
1286:Drivers/STM32F1xx_HAL_Driver/Src/stm32f1xx_hal_can.c ****   }
1287:Drivers/STM32F1xx_HAL_Driver/Src/stm32f1xx_hal_can.c ****   
1288:Drivers/STM32F1xx_HAL_Driver/Src/stm32f1xx_hal_can.c ****   tmp1 = __HAL_CAN_MSG_PENDING(hcan, CAN_FIFO1);
1289:Drivers/STM32F1xx_HAL_Driver/Src/stm32f1xx_hal_can.c ****   tmp2 = __HAL_CAN_GET_IT_SOURCE(hcan, CAN_IT_FMP1);
1290:Drivers/STM32F1xx_HAL_Driver/Src/stm32f1xx_hal_can.c ****   /* Check End of reception flag for FIFO1 */
1291:Drivers/STM32F1xx_HAL_Driver/Src/stm32f1xx_hal_can.c ****   if((tmp1 != 0U) && tmp2)
1292:Drivers/STM32F1xx_HAL_Driver/Src/stm32f1xx_hal_can.c ****   {
1293:Drivers/STM32F1xx_HAL_Driver/Src/stm32f1xx_hal_can.c ****     /* Call receive function */
1294:Drivers/STM32F1xx_HAL_Driver/Src/stm32f1xx_hal_can.c ****     CAN_Receive_IT(hcan, CAN_FIFO1);
1295:Drivers/STM32F1xx_HAL_Driver/Src/stm32f1xx_hal_can.c ****   }
1296:Drivers/STM32F1xx_HAL_Driver/Src/stm32f1xx_hal_can.c **** 
1297:Drivers/STM32F1xx_HAL_Driver/Src/stm32f1xx_hal_can.c ****   /* Set error code in handle */
1298:Drivers/STM32F1xx_HAL_Driver/Src/stm32f1xx_hal_can.c ****   hcan->ErrorCode |= errorcode;
1299:Drivers/STM32F1xx_HAL_Driver/Src/stm32f1xx_hal_can.c **** 
1300:Drivers/STM32F1xx_HAL_Driver/Src/stm32f1xx_hal_can.c ****   tmp1 = __HAL_CAN_GET_FLAG(hcan, CAN_FLAG_EWG);
1301:Drivers/STM32F1xx_HAL_Driver/Src/stm32f1xx_hal_can.c ****   tmp2 = __HAL_CAN_GET_IT_SOURCE(hcan, CAN_IT_EWG);
1302:Drivers/STM32F1xx_HAL_Driver/Src/stm32f1xx_hal_can.c ****   tmp3 = __HAL_CAN_GET_IT_SOURCE(hcan, CAN_IT_ERR);
1303:Drivers/STM32F1xx_HAL_Driver/Src/stm32f1xx_hal_can.c ****   /* Check Error Warning Flag */
1304:Drivers/STM32F1xx_HAL_Driver/Src/stm32f1xx_hal_can.c ****   if(tmp1 && tmp2 && tmp3)
1305:Drivers/STM32F1xx_HAL_Driver/Src/stm32f1xx_hal_can.c ****   {
1306:Drivers/STM32F1xx_HAL_Driver/Src/stm32f1xx_hal_can.c ****     /* Set CAN error code to EWG error */
1307:Drivers/STM32F1xx_HAL_Driver/Src/stm32f1xx_hal_can.c ****     hcan->ErrorCode |= HAL_CAN_ERROR_EWG;
1308:Drivers/STM32F1xx_HAL_Driver/Src/stm32f1xx_hal_can.c ****     /* No need for clear of Error Warning Flag as read-only */
1309:Drivers/STM32F1xx_HAL_Driver/Src/stm32f1xx_hal_can.c ****   }
1310:Drivers/STM32F1xx_HAL_Driver/Src/stm32f1xx_hal_can.c ****   
1311:Drivers/STM32F1xx_HAL_Driver/Src/stm32f1xx_hal_can.c ****   tmp1 = __HAL_CAN_GET_FLAG(hcan, CAN_FLAG_EPV);
1312:Drivers/STM32F1xx_HAL_Driver/Src/stm32f1xx_hal_can.c ****   tmp2 = __HAL_CAN_GET_IT_SOURCE(hcan, CAN_IT_EPV);
1313:Drivers/STM32F1xx_HAL_Driver/Src/stm32f1xx_hal_can.c ****   tmp3 = __HAL_CAN_GET_IT_SOURCE(hcan, CAN_IT_ERR); 
1314:Drivers/STM32F1xx_HAL_Driver/Src/stm32f1xx_hal_can.c ****   /* Check Error Passive Flag */
1315:Drivers/STM32F1xx_HAL_Driver/Src/stm32f1xx_hal_can.c ****   if(tmp1 && tmp2 && tmp3)
1316:Drivers/STM32F1xx_HAL_Driver/Src/stm32f1xx_hal_can.c ****   {
1317:Drivers/STM32F1xx_HAL_Driver/Src/stm32f1xx_hal_can.c ****     /* Set CAN error code to EPV error */
1318:Drivers/STM32F1xx_HAL_Driver/Src/stm32f1xx_hal_can.c ****     hcan->ErrorCode |= HAL_CAN_ERROR_EPV;
1319:Drivers/STM32F1xx_HAL_Driver/Src/stm32f1xx_hal_can.c ****     /* No need for clear of Error Passive Flag as read-only */ 
1320:Drivers/STM32F1xx_HAL_Driver/Src/stm32f1xx_hal_can.c ****   }
1321:Drivers/STM32F1xx_HAL_Driver/Src/stm32f1xx_hal_can.c ****   
1322:Drivers/STM32F1xx_HAL_Driver/Src/stm32f1xx_hal_can.c ****   tmp1 = __HAL_CAN_GET_FLAG(hcan, CAN_FLAG_BOF);
1323:Drivers/STM32F1xx_HAL_Driver/Src/stm32f1xx_hal_can.c ****   tmp2 = __HAL_CAN_GET_IT_SOURCE(hcan, CAN_IT_BOF);
ARM GAS  /tmp/ccRsISvi.s 			page 62


1324:Drivers/STM32F1xx_HAL_Driver/Src/stm32f1xx_hal_can.c ****   tmp3 = __HAL_CAN_GET_IT_SOURCE(hcan, CAN_IT_ERR);  
1325:Drivers/STM32F1xx_HAL_Driver/Src/stm32f1xx_hal_can.c ****   /* Check Bus-Off Flag */
1326:Drivers/STM32F1xx_HAL_Driver/Src/stm32f1xx_hal_can.c ****   if(tmp1 && tmp2 && tmp3)
1327:Drivers/STM32F1xx_HAL_Driver/Src/stm32f1xx_hal_can.c ****   {
1328:Drivers/STM32F1xx_HAL_Driver/Src/stm32f1xx_hal_can.c ****     /* Set CAN error code to BOF error */
1329:Drivers/STM32F1xx_HAL_Driver/Src/stm32f1xx_hal_can.c ****     hcan->ErrorCode |= HAL_CAN_ERROR_BOF;
1330:Drivers/STM32F1xx_HAL_Driver/Src/stm32f1xx_hal_can.c ****     /* No need for clear of Bus-Off Flag as read-only */
1331:Drivers/STM32F1xx_HAL_Driver/Src/stm32f1xx_hal_can.c ****   }
1332:Drivers/STM32F1xx_HAL_Driver/Src/stm32f1xx_hal_can.c ****   
1333:Drivers/STM32F1xx_HAL_Driver/Src/stm32f1xx_hal_can.c ****   tmp1 = HAL_IS_BIT_CLR(hcan->Instance->ESR, CAN_ESR_LEC);
1334:Drivers/STM32F1xx_HAL_Driver/Src/stm32f1xx_hal_can.c ****   tmp2 = __HAL_CAN_GET_IT_SOURCE(hcan, CAN_IT_LEC);
1335:Drivers/STM32F1xx_HAL_Driver/Src/stm32f1xx_hal_can.c ****   tmp3 = __HAL_CAN_GET_IT_SOURCE(hcan, CAN_IT_ERR);
1336:Drivers/STM32F1xx_HAL_Driver/Src/stm32f1xx_hal_can.c ****   /* Check Last error code Flag */
1337:Drivers/STM32F1xx_HAL_Driver/Src/stm32f1xx_hal_can.c ****   if((!tmp1) && tmp2 && tmp3)
1338:Drivers/STM32F1xx_HAL_Driver/Src/stm32f1xx_hal_can.c ****   {
1339:Drivers/STM32F1xx_HAL_Driver/Src/stm32f1xx_hal_can.c ****     tmp1 = (hcan->Instance->ESR & CAN_ESR_LEC);
1340:Drivers/STM32F1xx_HAL_Driver/Src/stm32f1xx_hal_can.c ****     switch(tmp1)
1341:Drivers/STM32F1xx_HAL_Driver/Src/stm32f1xx_hal_can.c ****     {
1342:Drivers/STM32F1xx_HAL_Driver/Src/stm32f1xx_hal_can.c ****       case(CAN_ESR_LEC_0):
1343:Drivers/STM32F1xx_HAL_Driver/Src/stm32f1xx_hal_can.c ****           /* Set CAN error code to STF error */
1344:Drivers/STM32F1xx_HAL_Driver/Src/stm32f1xx_hal_can.c ****           hcan->ErrorCode |= HAL_CAN_ERROR_STF;
1345:Drivers/STM32F1xx_HAL_Driver/Src/stm32f1xx_hal_can.c ****           break;
1346:Drivers/STM32F1xx_HAL_Driver/Src/stm32f1xx_hal_can.c ****       case(CAN_ESR_LEC_1):
1347:Drivers/STM32F1xx_HAL_Driver/Src/stm32f1xx_hal_can.c ****           /* Set CAN error code to FOR error */
1348:Drivers/STM32F1xx_HAL_Driver/Src/stm32f1xx_hal_can.c ****           hcan->ErrorCode |= HAL_CAN_ERROR_FOR;
1349:Drivers/STM32F1xx_HAL_Driver/Src/stm32f1xx_hal_can.c ****           break;
1350:Drivers/STM32F1xx_HAL_Driver/Src/stm32f1xx_hal_can.c ****       case(CAN_ESR_LEC_1 | CAN_ESR_LEC_0):
1351:Drivers/STM32F1xx_HAL_Driver/Src/stm32f1xx_hal_can.c ****           /* Set CAN error code to ACK error */
1352:Drivers/STM32F1xx_HAL_Driver/Src/stm32f1xx_hal_can.c ****           hcan->ErrorCode |= HAL_CAN_ERROR_ACK;
1353:Drivers/STM32F1xx_HAL_Driver/Src/stm32f1xx_hal_can.c ****           break;
1354:Drivers/STM32F1xx_HAL_Driver/Src/stm32f1xx_hal_can.c ****       case(CAN_ESR_LEC_2):
1355:Drivers/STM32F1xx_HAL_Driver/Src/stm32f1xx_hal_can.c ****           /* Set CAN error code to BR error */
1356:Drivers/STM32F1xx_HAL_Driver/Src/stm32f1xx_hal_can.c ****           hcan->ErrorCode |= HAL_CAN_ERROR_BR;
1357:Drivers/STM32F1xx_HAL_Driver/Src/stm32f1xx_hal_can.c ****           break;
1358:Drivers/STM32F1xx_HAL_Driver/Src/stm32f1xx_hal_can.c ****       case(CAN_ESR_LEC_2 | CAN_ESR_LEC_0):
1359:Drivers/STM32F1xx_HAL_Driver/Src/stm32f1xx_hal_can.c ****           /* Set CAN error code to BD error */
1360:Drivers/STM32F1xx_HAL_Driver/Src/stm32f1xx_hal_can.c ****           hcan->ErrorCode |= HAL_CAN_ERROR_BD;
1361:Drivers/STM32F1xx_HAL_Driver/Src/stm32f1xx_hal_can.c ****           break;
1362:Drivers/STM32F1xx_HAL_Driver/Src/stm32f1xx_hal_can.c ****       case(CAN_ESR_LEC_2 | CAN_ESR_LEC_1):
1363:Drivers/STM32F1xx_HAL_Driver/Src/stm32f1xx_hal_can.c ****           /* Set CAN error code to CRC error */
1364:Drivers/STM32F1xx_HAL_Driver/Src/stm32f1xx_hal_can.c ****           hcan->ErrorCode |= HAL_CAN_ERROR_CRC;
1365:Drivers/STM32F1xx_HAL_Driver/Src/stm32f1xx_hal_can.c ****           break;
1366:Drivers/STM32F1xx_HAL_Driver/Src/stm32f1xx_hal_can.c ****       default:
1367:Drivers/STM32F1xx_HAL_Driver/Src/stm32f1xx_hal_can.c ****           break;
1368:Drivers/STM32F1xx_HAL_Driver/Src/stm32f1xx_hal_can.c ****     }
1369:Drivers/STM32F1xx_HAL_Driver/Src/stm32f1xx_hal_can.c **** 
1370:Drivers/STM32F1xx_HAL_Driver/Src/stm32f1xx_hal_can.c ****     /* Clear Last error code Flag */ 
1371:Drivers/STM32F1xx_HAL_Driver/Src/stm32f1xx_hal_can.c ****     CLEAR_BIT(hcan->Instance->ESR, CAN_ESR_LEC);
1372:Drivers/STM32F1xx_HAL_Driver/Src/stm32f1xx_hal_can.c ****   }
1373:Drivers/STM32F1xx_HAL_Driver/Src/stm32f1xx_hal_can.c **** 
1374:Drivers/STM32F1xx_HAL_Driver/Src/stm32f1xx_hal_can.c ****   /* Call the Error call Back in case of Errors */
1375:Drivers/STM32F1xx_HAL_Driver/Src/stm32f1xx_hal_can.c ****   if(hcan->ErrorCode != HAL_CAN_ERROR_NONE)
1376:Drivers/STM32F1xx_HAL_Driver/Src/stm32f1xx_hal_can.c ****   {
1377:Drivers/STM32F1xx_HAL_Driver/Src/stm32f1xx_hal_can.c ****     /* Clear ERRI Flag */ 
1378:Drivers/STM32F1xx_HAL_Driver/Src/stm32f1xx_hal_can.c ****     hcan->Instance->MSR = CAN_MSR_ERRI; 
1379:Drivers/STM32F1xx_HAL_Driver/Src/stm32f1xx_hal_can.c ****     /* Set the CAN state ready to be able to start again the process */
1380:Drivers/STM32F1xx_HAL_Driver/Src/stm32f1xx_hal_can.c ****     hcan->State = HAL_CAN_STATE_READY;
ARM GAS  /tmp/ccRsISvi.s 			page 63


1381:Drivers/STM32F1xx_HAL_Driver/Src/stm32f1xx_hal_can.c **** 
1382:Drivers/STM32F1xx_HAL_Driver/Src/stm32f1xx_hal_can.c ****     /* Disable interrupts: */
1383:Drivers/STM32F1xx_HAL_Driver/Src/stm32f1xx_hal_can.c ****     /*  - Disable Error warning Interrupt */
1384:Drivers/STM32F1xx_HAL_Driver/Src/stm32f1xx_hal_can.c ****     /*  - Disable Error passive Interrupt */
1385:Drivers/STM32F1xx_HAL_Driver/Src/stm32f1xx_hal_can.c ****     /*  - Disable Bus-off Interrupt */
1386:Drivers/STM32F1xx_HAL_Driver/Src/stm32f1xx_hal_can.c ****     /*  - Disable Last error code Interrupt */
1387:Drivers/STM32F1xx_HAL_Driver/Src/stm32f1xx_hal_can.c ****     /*  - Disable Error Interrupt */
1388:Drivers/STM32F1xx_HAL_Driver/Src/stm32f1xx_hal_can.c ****     /*  - Disable FIFO 0 message pending Interrupt */
1389:Drivers/STM32F1xx_HAL_Driver/Src/stm32f1xx_hal_can.c ****     /*  - Disable FIFO 0 Overrun Interrupt */
1390:Drivers/STM32F1xx_HAL_Driver/Src/stm32f1xx_hal_can.c ****     /*  - Disable FIFO 1 message pending Interrupt */
1391:Drivers/STM32F1xx_HAL_Driver/Src/stm32f1xx_hal_can.c ****     /*  - Disable FIFO 1 Overrun Interrupt */
1392:Drivers/STM32F1xx_HAL_Driver/Src/stm32f1xx_hal_can.c ****     /*  - Disable Transmit mailbox empty Interrupt */
1393:Drivers/STM32F1xx_HAL_Driver/Src/stm32f1xx_hal_can.c ****     __HAL_CAN_DISABLE_IT(hcan, CAN_IT_EWG |
1394:Drivers/STM32F1xx_HAL_Driver/Src/stm32f1xx_hal_can.c ****                                CAN_IT_EPV |
1395:Drivers/STM32F1xx_HAL_Driver/Src/stm32f1xx_hal_can.c ****                                CAN_IT_BOF |
1396:Drivers/STM32F1xx_HAL_Driver/Src/stm32f1xx_hal_can.c ****                                CAN_IT_LEC |
1397:Drivers/STM32F1xx_HAL_Driver/Src/stm32f1xx_hal_can.c ****                                CAN_IT_ERR |
1398:Drivers/STM32F1xx_HAL_Driver/Src/stm32f1xx_hal_can.c ****                                CAN_IT_FMP0|
1399:Drivers/STM32F1xx_HAL_Driver/Src/stm32f1xx_hal_can.c ****                                CAN_IT_FOV0|
1400:Drivers/STM32F1xx_HAL_Driver/Src/stm32f1xx_hal_can.c ****                                CAN_IT_FMP1|
1401:Drivers/STM32F1xx_HAL_Driver/Src/stm32f1xx_hal_can.c ****                                CAN_IT_FOV1|
1402:Drivers/STM32F1xx_HAL_Driver/Src/stm32f1xx_hal_can.c ****                                CAN_IT_TME  );
1403:Drivers/STM32F1xx_HAL_Driver/Src/stm32f1xx_hal_can.c **** 
1404:Drivers/STM32F1xx_HAL_Driver/Src/stm32f1xx_hal_can.c ****     /* Call Error callback function */
1405:Drivers/STM32F1xx_HAL_Driver/Src/stm32f1xx_hal_can.c ****     HAL_CAN_ErrorCallback(hcan);
1406:Drivers/STM32F1xx_HAL_Driver/Src/stm32f1xx_hal_can.c ****   }  
1407:Drivers/STM32F1xx_HAL_Driver/Src/stm32f1xx_hal_can.c **** }
1408:Drivers/STM32F1xx_HAL_Driver/Src/stm32f1xx_hal_can.c **** 
1409:Drivers/STM32F1xx_HAL_Driver/Src/stm32f1xx_hal_can.c **** /**
1410:Drivers/STM32F1xx_HAL_Driver/Src/stm32f1xx_hal_can.c ****   * @brief  Transmission  complete callback in non blocking mode 
1411:Drivers/STM32F1xx_HAL_Driver/Src/stm32f1xx_hal_can.c ****   * @param  hcan: pointer to a CAN_HandleTypeDef structure that contains
1412:Drivers/STM32F1xx_HAL_Driver/Src/stm32f1xx_hal_can.c ****   *         the configuration information for the specified CAN.
1413:Drivers/STM32F1xx_HAL_Driver/Src/stm32f1xx_hal_can.c ****   * @retval None
1414:Drivers/STM32F1xx_HAL_Driver/Src/stm32f1xx_hal_can.c ****   */
1415:Drivers/STM32F1xx_HAL_Driver/Src/stm32f1xx_hal_can.c **** __weak void HAL_CAN_TxCpltCallback(CAN_HandleTypeDef* hcan)
1416:Drivers/STM32F1xx_HAL_Driver/Src/stm32f1xx_hal_can.c **** {
 2052              		.loc 1 1416 0
 2053              		.cfi_startproc
 2054              		@ args = 0, pretend = 0, frame = 0
 2055              		@ frame_needed = 0, uses_anonymous_args = 0
 2056              		@ link register save eliminated.
 2057              	.LVL145:
 2058 0000 7047     		bx	lr
 2059              		.cfi_endproc
 2060              	.LFE75:
 2062 0002 00BF     		.section	.text.CAN_Transmit_IT,"ax",%progbits
 2063              		.align	2
 2064              		.thumb
 2065              		.thumb_func
 2067              	CAN_Transmit_IT:
 2068              	.LFB80:
1417:Drivers/STM32F1xx_HAL_Driver/Src/stm32f1xx_hal_can.c ****   /* Prevent unused argument(s) compilation warning */
1418:Drivers/STM32F1xx_HAL_Driver/Src/stm32f1xx_hal_can.c ****   UNUSED(hcan);
1419:Drivers/STM32F1xx_HAL_Driver/Src/stm32f1xx_hal_can.c ****   /* NOTE : This function Should not be modified, when the callback is needed,
1420:Drivers/STM32F1xx_HAL_Driver/Src/stm32f1xx_hal_can.c ****             the HAL_CAN_TxCpltCallback can be implemented in the user file
1421:Drivers/STM32F1xx_HAL_Driver/Src/stm32f1xx_hal_can.c ****    */
1422:Drivers/STM32F1xx_HAL_Driver/Src/stm32f1xx_hal_can.c **** }
ARM GAS  /tmp/ccRsISvi.s 			page 64


1423:Drivers/STM32F1xx_HAL_Driver/Src/stm32f1xx_hal_can.c **** 
1424:Drivers/STM32F1xx_HAL_Driver/Src/stm32f1xx_hal_can.c **** /**
1425:Drivers/STM32F1xx_HAL_Driver/Src/stm32f1xx_hal_can.c ****   * @brief  Transmission  complete callback in non blocking mode 
1426:Drivers/STM32F1xx_HAL_Driver/Src/stm32f1xx_hal_can.c ****   * @param  hcan: pointer to a CAN_HandleTypeDef structure that contains
1427:Drivers/STM32F1xx_HAL_Driver/Src/stm32f1xx_hal_can.c ****   *         the configuration information for the specified CAN.
1428:Drivers/STM32F1xx_HAL_Driver/Src/stm32f1xx_hal_can.c ****   * @retval None
1429:Drivers/STM32F1xx_HAL_Driver/Src/stm32f1xx_hal_can.c ****   */
1430:Drivers/STM32F1xx_HAL_Driver/Src/stm32f1xx_hal_can.c **** __weak void HAL_CAN_RxCpltCallback(CAN_HandleTypeDef* hcan)
1431:Drivers/STM32F1xx_HAL_Driver/Src/stm32f1xx_hal_can.c **** {
1432:Drivers/STM32F1xx_HAL_Driver/Src/stm32f1xx_hal_can.c ****   /* Prevent unused argument(s) compilation warning */
1433:Drivers/STM32F1xx_HAL_Driver/Src/stm32f1xx_hal_can.c ****   UNUSED(hcan);
1434:Drivers/STM32F1xx_HAL_Driver/Src/stm32f1xx_hal_can.c ****   /* NOTE : This function Should not be modified, when the callback is needed,
1435:Drivers/STM32F1xx_HAL_Driver/Src/stm32f1xx_hal_can.c ****             the HAL_CAN_RxCpltCallback can be implemented in the user file
1436:Drivers/STM32F1xx_HAL_Driver/Src/stm32f1xx_hal_can.c ****    */
1437:Drivers/STM32F1xx_HAL_Driver/Src/stm32f1xx_hal_can.c **** }
1438:Drivers/STM32F1xx_HAL_Driver/Src/stm32f1xx_hal_can.c **** 
1439:Drivers/STM32F1xx_HAL_Driver/Src/stm32f1xx_hal_can.c **** /**
1440:Drivers/STM32F1xx_HAL_Driver/Src/stm32f1xx_hal_can.c ****   * @brief  Error CAN callback.
1441:Drivers/STM32F1xx_HAL_Driver/Src/stm32f1xx_hal_can.c ****   * @param  hcan: pointer to a CAN_HandleTypeDef structure that contains
1442:Drivers/STM32F1xx_HAL_Driver/Src/stm32f1xx_hal_can.c ****   *         the configuration information for the specified CAN.
1443:Drivers/STM32F1xx_HAL_Driver/Src/stm32f1xx_hal_can.c ****   * @retval None
1444:Drivers/STM32F1xx_HAL_Driver/Src/stm32f1xx_hal_can.c ****   */
1445:Drivers/STM32F1xx_HAL_Driver/Src/stm32f1xx_hal_can.c **** __weak void HAL_CAN_ErrorCallback(CAN_HandleTypeDef *hcan)
1446:Drivers/STM32F1xx_HAL_Driver/Src/stm32f1xx_hal_can.c **** {
1447:Drivers/STM32F1xx_HAL_Driver/Src/stm32f1xx_hal_can.c ****   /* Prevent unused argument(s) compilation warning */
1448:Drivers/STM32F1xx_HAL_Driver/Src/stm32f1xx_hal_can.c ****   UNUSED(hcan);
1449:Drivers/STM32F1xx_HAL_Driver/Src/stm32f1xx_hal_can.c ****   /* NOTE : This function Should not be modified, when the callback is needed,
1450:Drivers/STM32F1xx_HAL_Driver/Src/stm32f1xx_hal_can.c ****             the HAL_CAN_ErrorCallback can be implemented in the user file
1451:Drivers/STM32F1xx_HAL_Driver/Src/stm32f1xx_hal_can.c ****    */
1452:Drivers/STM32F1xx_HAL_Driver/Src/stm32f1xx_hal_can.c **** }
1453:Drivers/STM32F1xx_HAL_Driver/Src/stm32f1xx_hal_can.c **** 
1454:Drivers/STM32F1xx_HAL_Driver/Src/stm32f1xx_hal_can.c **** /**
1455:Drivers/STM32F1xx_HAL_Driver/Src/stm32f1xx_hal_can.c ****   * @}
1456:Drivers/STM32F1xx_HAL_Driver/Src/stm32f1xx_hal_can.c ****   */
1457:Drivers/STM32F1xx_HAL_Driver/Src/stm32f1xx_hal_can.c **** 
1458:Drivers/STM32F1xx_HAL_Driver/Src/stm32f1xx_hal_can.c **** /** @defgroup CAN_Exported_Functions_Group3 Peripheral State and Error functions
1459:Drivers/STM32F1xx_HAL_Driver/Src/stm32f1xx_hal_can.c ****   *  @brief   CAN Peripheral State functions 
1460:Drivers/STM32F1xx_HAL_Driver/Src/stm32f1xx_hal_can.c ****   *
1461:Drivers/STM32F1xx_HAL_Driver/Src/stm32f1xx_hal_can.c **** @verbatim   
1462:Drivers/STM32F1xx_HAL_Driver/Src/stm32f1xx_hal_can.c ****   ==============================================================================
1463:Drivers/STM32F1xx_HAL_Driver/Src/stm32f1xx_hal_can.c ****             ##### Peripheral State and Error functions #####
1464:Drivers/STM32F1xx_HAL_Driver/Src/stm32f1xx_hal_can.c ****   ==============================================================================
1465:Drivers/STM32F1xx_HAL_Driver/Src/stm32f1xx_hal_can.c ****     [..]
1466:Drivers/STM32F1xx_HAL_Driver/Src/stm32f1xx_hal_can.c ****     This subsection provides functions allowing to :
1467:Drivers/STM32F1xx_HAL_Driver/Src/stm32f1xx_hal_can.c ****       (+) Check the CAN state.
1468:Drivers/STM32F1xx_HAL_Driver/Src/stm32f1xx_hal_can.c ****       (+) Check CAN Errors detected during interrupt process
1469:Drivers/STM32F1xx_HAL_Driver/Src/stm32f1xx_hal_can.c ****          
1470:Drivers/STM32F1xx_HAL_Driver/Src/stm32f1xx_hal_can.c **** @endverbatim
1471:Drivers/STM32F1xx_HAL_Driver/Src/stm32f1xx_hal_can.c ****   * @{
1472:Drivers/STM32F1xx_HAL_Driver/Src/stm32f1xx_hal_can.c ****   */
1473:Drivers/STM32F1xx_HAL_Driver/Src/stm32f1xx_hal_can.c **** 
1474:Drivers/STM32F1xx_HAL_Driver/Src/stm32f1xx_hal_can.c **** /**
1475:Drivers/STM32F1xx_HAL_Driver/Src/stm32f1xx_hal_can.c ****   * @brief  return the CAN state
1476:Drivers/STM32F1xx_HAL_Driver/Src/stm32f1xx_hal_can.c ****   * @param  hcan: pointer to a CAN_HandleTypeDef structure that contains
1477:Drivers/STM32F1xx_HAL_Driver/Src/stm32f1xx_hal_can.c ****   *         the configuration information for the specified CAN.
1478:Drivers/STM32F1xx_HAL_Driver/Src/stm32f1xx_hal_can.c ****   * @retval HAL state
1479:Drivers/STM32F1xx_HAL_Driver/Src/stm32f1xx_hal_can.c ****   */
ARM GAS  /tmp/ccRsISvi.s 			page 65


1480:Drivers/STM32F1xx_HAL_Driver/Src/stm32f1xx_hal_can.c **** HAL_CAN_StateTypeDef HAL_CAN_GetState(CAN_HandleTypeDef* hcan)
1481:Drivers/STM32F1xx_HAL_Driver/Src/stm32f1xx_hal_can.c **** {
1482:Drivers/STM32F1xx_HAL_Driver/Src/stm32f1xx_hal_can.c ****   /* Return CAN state */
1483:Drivers/STM32F1xx_HAL_Driver/Src/stm32f1xx_hal_can.c ****   return hcan->State;
1484:Drivers/STM32F1xx_HAL_Driver/Src/stm32f1xx_hal_can.c **** }
1485:Drivers/STM32F1xx_HAL_Driver/Src/stm32f1xx_hal_can.c **** 
1486:Drivers/STM32F1xx_HAL_Driver/Src/stm32f1xx_hal_can.c **** /**
1487:Drivers/STM32F1xx_HAL_Driver/Src/stm32f1xx_hal_can.c ****   * @brief  Return the CAN error code
1488:Drivers/STM32F1xx_HAL_Driver/Src/stm32f1xx_hal_can.c ****   * @param  hcan: pointer to a CAN_HandleTypeDef structure that contains
1489:Drivers/STM32F1xx_HAL_Driver/Src/stm32f1xx_hal_can.c ****   *         the configuration information for the specified CAN.
1490:Drivers/STM32F1xx_HAL_Driver/Src/stm32f1xx_hal_can.c ****   * @retval CAN Error Code
1491:Drivers/STM32F1xx_HAL_Driver/Src/stm32f1xx_hal_can.c ****   */
1492:Drivers/STM32F1xx_HAL_Driver/Src/stm32f1xx_hal_can.c **** uint32_t HAL_CAN_GetError(CAN_HandleTypeDef *hcan)
1493:Drivers/STM32F1xx_HAL_Driver/Src/stm32f1xx_hal_can.c **** {
1494:Drivers/STM32F1xx_HAL_Driver/Src/stm32f1xx_hal_can.c ****   return hcan->ErrorCode;
1495:Drivers/STM32F1xx_HAL_Driver/Src/stm32f1xx_hal_can.c **** }
1496:Drivers/STM32F1xx_HAL_Driver/Src/stm32f1xx_hal_can.c **** 
1497:Drivers/STM32F1xx_HAL_Driver/Src/stm32f1xx_hal_can.c **** /**
1498:Drivers/STM32F1xx_HAL_Driver/Src/stm32f1xx_hal_can.c ****   * @}
1499:Drivers/STM32F1xx_HAL_Driver/Src/stm32f1xx_hal_can.c ****   */
1500:Drivers/STM32F1xx_HAL_Driver/Src/stm32f1xx_hal_can.c **** 
1501:Drivers/STM32F1xx_HAL_Driver/Src/stm32f1xx_hal_can.c **** /**
1502:Drivers/STM32F1xx_HAL_Driver/Src/stm32f1xx_hal_can.c ****   * @}
1503:Drivers/STM32F1xx_HAL_Driver/Src/stm32f1xx_hal_can.c ****   */
1504:Drivers/STM32F1xx_HAL_Driver/Src/stm32f1xx_hal_can.c **** 
1505:Drivers/STM32F1xx_HAL_Driver/Src/stm32f1xx_hal_can.c **** /** @addtogroup CAN_Private_Functions
1506:Drivers/STM32F1xx_HAL_Driver/Src/stm32f1xx_hal_can.c ****   * @{
1507:Drivers/STM32F1xx_HAL_Driver/Src/stm32f1xx_hal_can.c ****   */
1508:Drivers/STM32F1xx_HAL_Driver/Src/stm32f1xx_hal_can.c **** /**
1509:Drivers/STM32F1xx_HAL_Driver/Src/stm32f1xx_hal_can.c ****   * @brief  Initiates and transmits a CAN frame message.
1510:Drivers/STM32F1xx_HAL_Driver/Src/stm32f1xx_hal_can.c ****   * @param  hcan: pointer to a CAN_HandleTypeDef structure that contains
1511:Drivers/STM32F1xx_HAL_Driver/Src/stm32f1xx_hal_can.c ****   *         the configuration information for the specified CAN.  
1512:Drivers/STM32F1xx_HAL_Driver/Src/stm32f1xx_hal_can.c ****   * @retval HAL status
1513:Drivers/STM32F1xx_HAL_Driver/Src/stm32f1xx_hal_can.c ****   */
1514:Drivers/STM32F1xx_HAL_Driver/Src/stm32f1xx_hal_can.c **** static HAL_StatusTypeDef CAN_Transmit_IT(CAN_HandleTypeDef* hcan)
1515:Drivers/STM32F1xx_HAL_Driver/Src/stm32f1xx_hal_can.c **** {
 2069              		.loc 1 1515 0
 2070              		.cfi_startproc
 2071              		@ args = 0, pretend = 0, frame = 0
 2072              		@ frame_needed = 0, uses_anonymous_args = 0
 2073              	.LVL146:
 2074              		.loc 1 1515 0
 2075 0000 08B5     		push	{r3, lr}
 2076              	.LCFI18:
 2077              		.cfi_def_cfa_offset 8
 2078              		.cfi_offset 3, -8
 2079              		.cfi_offset 14, -4
1516:Drivers/STM32F1xx_HAL_Driver/Src/stm32f1xx_hal_can.c ****   /* Disable Transmit mailbox empty Interrupt */
1517:Drivers/STM32F1xx_HAL_Driver/Src/stm32f1xx_hal_can.c ****   __HAL_CAN_DISABLE_IT(hcan, CAN_IT_TME);
 2080              		.loc 1 1517 0
 2081 0002 0268     		ldr	r2, [r0]
 2082 0004 5369     		ldr	r3, [r2, #20]
 2083 0006 23F00103 		bic	r3, r3, #1
 2084 000a 5361     		str	r3, [r2, #20]
1518:Drivers/STM32F1xx_HAL_Driver/Src/stm32f1xx_hal_can.c ****   
1519:Drivers/STM32F1xx_HAL_Driver/Src/stm32f1xx_hal_can.c ****   if(hcan->State == HAL_CAN_STATE_BUSY_TX)
 2085              		.loc 1 1519 0
ARM GAS  /tmp/ccRsISvi.s 			page 66


 2086 000c 90F83C30 		ldrb	r3, [r0, #60]	@ zero_extendqisi2
 2087 0010 DBB2     		uxtb	r3, r3
 2088 0012 122B     		cmp	r3, #18
 2089 0014 04D1     		bne	.L192
1520:Drivers/STM32F1xx_HAL_Driver/Src/stm32f1xx_hal_can.c ****   {   
1521:Drivers/STM32F1xx_HAL_Driver/Src/stm32f1xx_hal_can.c ****     /* Disable interrupts: */
1522:Drivers/STM32F1xx_HAL_Driver/Src/stm32f1xx_hal_can.c ****     /*  - Disable Error warning Interrupt */
1523:Drivers/STM32F1xx_HAL_Driver/Src/stm32f1xx_hal_can.c ****     /*  - Disable Error passive Interrupt */
1524:Drivers/STM32F1xx_HAL_Driver/Src/stm32f1xx_hal_can.c ****     /*  - Disable Bus-off Interrupt */
1525:Drivers/STM32F1xx_HAL_Driver/Src/stm32f1xx_hal_can.c ****     /*  - Disable Last error code Interrupt */
1526:Drivers/STM32F1xx_HAL_Driver/Src/stm32f1xx_hal_can.c ****     /*  - Disable Error Interrupt */
1527:Drivers/STM32F1xx_HAL_Driver/Src/stm32f1xx_hal_can.c ****     __HAL_CAN_DISABLE_IT(hcan, CAN_IT_EWG |
 2090              		.loc 1 1527 0
 2091 0016 0268     		ldr	r2, [r0]
 2092 0018 5369     		ldr	r3, [r2, #20]
 2093 001a 23F40F43 		bic	r3, r3, #36608
 2094 001e 5361     		str	r3, [r2, #20]
 2095              	.L192:
1528:Drivers/STM32F1xx_HAL_Driver/Src/stm32f1xx_hal_can.c ****                                CAN_IT_EPV |
1529:Drivers/STM32F1xx_HAL_Driver/Src/stm32f1xx_hal_can.c ****                                CAN_IT_BOF |
1530:Drivers/STM32F1xx_HAL_Driver/Src/stm32f1xx_hal_can.c ****                                CAN_IT_LEC |
1531:Drivers/STM32F1xx_HAL_Driver/Src/stm32f1xx_hal_can.c ****                                CAN_IT_ERR);
1532:Drivers/STM32F1xx_HAL_Driver/Src/stm32f1xx_hal_can.c ****   }
1533:Drivers/STM32F1xx_HAL_Driver/Src/stm32f1xx_hal_can.c **** 
1534:Drivers/STM32F1xx_HAL_Driver/Src/stm32f1xx_hal_can.c ****   /* Change CAN state */
1535:Drivers/STM32F1xx_HAL_Driver/Src/stm32f1xx_hal_can.c ****   switch(hcan->State)
 2096              		.loc 1 1535 0
 2097 0020 90F83C30 		ldrb	r3, [r0, #60]	@ zero_extendqisi2
 2098 0024 DBB2     		uxtb	r3, r3
 2099 0026 522B     		cmp	r3, #82
 2100 0028 07D0     		beq	.L194
 2101 002a 722B     		cmp	r3, #114
 2102 002c 09D0     		beq	.L195
 2103 002e 422B     		cmp	r3, #66
 2104 0030 0BD1     		bne	.L198
1536:Drivers/STM32F1xx_HAL_Driver/Src/stm32f1xx_hal_can.c ****   {
1537:Drivers/STM32F1xx_HAL_Driver/Src/stm32f1xx_hal_can.c ****     case(HAL_CAN_STATE_BUSY_TX_RX0):
1538:Drivers/STM32F1xx_HAL_Driver/Src/stm32f1xx_hal_can.c ****       hcan->State = HAL_CAN_STATE_BUSY_RX0;
 2105              		.loc 1 1538 0
 2106 0032 2223     		movs	r3, #34
 2107 0034 80F83C30 		strb	r3, [r0, #60]
1539:Drivers/STM32F1xx_HAL_Driver/Src/stm32f1xx_hal_can.c ****       break;
 2108              		.loc 1 1539 0
 2109 0038 0AE0     		b	.L197
 2110              	.L194:
1540:Drivers/STM32F1xx_HAL_Driver/Src/stm32f1xx_hal_can.c ****     case(HAL_CAN_STATE_BUSY_TX_RX1):
1541:Drivers/STM32F1xx_HAL_Driver/Src/stm32f1xx_hal_can.c ****       hcan->State = HAL_CAN_STATE_BUSY_RX1;
 2111              		.loc 1 1541 0
 2112 003a 3223     		movs	r3, #50
 2113 003c 80F83C30 		strb	r3, [r0, #60]
1542:Drivers/STM32F1xx_HAL_Driver/Src/stm32f1xx_hal_can.c ****       break;
 2114              		.loc 1 1542 0
 2115 0040 06E0     		b	.L197
 2116              	.L195:
1543:Drivers/STM32F1xx_HAL_Driver/Src/stm32f1xx_hal_can.c ****     case(HAL_CAN_STATE_BUSY_TX_RX0_RX1):
1544:Drivers/STM32F1xx_HAL_Driver/Src/stm32f1xx_hal_can.c ****       hcan->State = HAL_CAN_STATE_BUSY_RX0_RX1;
 2117              		.loc 1 1544 0
ARM GAS  /tmp/ccRsISvi.s 			page 67


 2118 0042 6223     		movs	r3, #98
 2119 0044 80F83C30 		strb	r3, [r0, #60]
1545:Drivers/STM32F1xx_HAL_Driver/Src/stm32f1xx_hal_can.c ****       break;
 2120              		.loc 1 1545 0
 2121 0048 02E0     		b	.L197
 2122              	.L198:
1546:Drivers/STM32F1xx_HAL_Driver/Src/stm32f1xx_hal_can.c ****     default: /* HAL_CAN_STATE_BUSY_TX */
1547:Drivers/STM32F1xx_HAL_Driver/Src/stm32f1xx_hal_can.c ****       hcan->State = HAL_CAN_STATE_READY;
 2123              		.loc 1 1547 0
 2124 004a 0123     		movs	r3, #1
 2125 004c 80F83C30 		strb	r3, [r0, #60]
 2126              	.L197:
1548:Drivers/STM32F1xx_HAL_Driver/Src/stm32f1xx_hal_can.c ****       break;
1549:Drivers/STM32F1xx_HAL_Driver/Src/stm32f1xx_hal_can.c ****   }
1550:Drivers/STM32F1xx_HAL_Driver/Src/stm32f1xx_hal_can.c **** 
1551:Drivers/STM32F1xx_HAL_Driver/Src/stm32f1xx_hal_can.c ****   /* Transmission complete callback */ 
1552:Drivers/STM32F1xx_HAL_Driver/Src/stm32f1xx_hal_can.c ****   HAL_CAN_TxCpltCallback(hcan);
 2127              		.loc 1 1552 0
 2128 0050 FFF7FEFF 		bl	HAL_CAN_TxCpltCallback
 2129              	.LVL147:
1553:Drivers/STM32F1xx_HAL_Driver/Src/stm32f1xx_hal_can.c ****   
1554:Drivers/STM32F1xx_HAL_Driver/Src/stm32f1xx_hal_can.c ****   return HAL_OK;
1555:Drivers/STM32F1xx_HAL_Driver/Src/stm32f1xx_hal_can.c **** }
 2130              		.loc 1 1555 0
 2131 0054 0020     		movs	r0, #0
 2132 0056 08BD     		pop	{r3, pc}
 2133              		.cfi_endproc
 2134              	.LFE80:
 2136              		.section	.text.HAL_CAN_RxCpltCallback,"ax",%progbits
 2137              		.align	2
 2138              		.weak	HAL_CAN_RxCpltCallback
 2139              		.thumb
 2140              		.thumb_func
 2142              	HAL_CAN_RxCpltCallback:
 2143              	.LFB76:
1431:Drivers/STM32F1xx_HAL_Driver/Src/stm32f1xx_hal_can.c ****   /* Prevent unused argument(s) compilation warning */
 2144              		.loc 1 1431 0
 2145              		.cfi_startproc
 2146              		@ args = 0, pretend = 0, frame = 0
 2147              		@ frame_needed = 0, uses_anonymous_args = 0
 2148              		@ link register save eliminated.
 2149              	.LVL148:
 2150 0000 7047     		bx	lr
 2151              		.cfi_endproc
 2152              	.LFE76:
 2154 0002 00BF     		.section	.text.CAN_Receive_IT,"ax",%progbits
 2155              		.align	2
 2156              		.thumb
 2157              		.thumb_func
 2159              	CAN_Receive_IT:
 2160              	.LFB81:
1556:Drivers/STM32F1xx_HAL_Driver/Src/stm32f1xx_hal_can.c **** 
1557:Drivers/STM32F1xx_HAL_Driver/Src/stm32f1xx_hal_can.c **** /**
1558:Drivers/STM32F1xx_HAL_Driver/Src/stm32f1xx_hal_can.c ****   * @brief  Receives a correct CAN frame.
1559:Drivers/STM32F1xx_HAL_Driver/Src/stm32f1xx_hal_can.c ****   * @param  hcan:       Pointer to a CAN_HandleTypeDef structure that contains
1560:Drivers/STM32F1xx_HAL_Driver/Src/stm32f1xx_hal_can.c ****   *         the configuration information for the specified CAN.  
1561:Drivers/STM32F1xx_HAL_Driver/Src/stm32f1xx_hal_can.c ****   * @param  FIFONumber: Specify the FIFO number    
ARM GAS  /tmp/ccRsISvi.s 			page 68


1562:Drivers/STM32F1xx_HAL_Driver/Src/stm32f1xx_hal_can.c ****   * @retval HAL status
1563:Drivers/STM32F1xx_HAL_Driver/Src/stm32f1xx_hal_can.c ****   * @retval None
1564:Drivers/STM32F1xx_HAL_Driver/Src/stm32f1xx_hal_can.c ****   */
1565:Drivers/STM32F1xx_HAL_Driver/Src/stm32f1xx_hal_can.c **** static HAL_StatusTypeDef CAN_Receive_IT(CAN_HandleTypeDef* hcan, uint8_t FIFONumber)
1566:Drivers/STM32F1xx_HAL_Driver/Src/stm32f1xx_hal_can.c **** {
 2161              		.loc 1 1566 0
 2162              		.cfi_startproc
 2163              		@ args = 0, pretend = 0, frame = 0
 2164              		@ frame_needed = 0, uses_anonymous_args = 0
 2165              	.LVL149:
 2166              		.loc 1 1566 0
 2167 0000 10B5     		push	{r4, lr}
 2168              	.LCFI19:
 2169              		.cfi_def_cfa_offset 8
 2170              		.cfi_offset 4, -8
 2171              		.cfi_offset 14, -4
 2172              	.LVL150:
1567:Drivers/STM32F1xx_HAL_Driver/Src/stm32f1xx_hal_can.c ****   uint32_t tmp1 = 0U;
1568:Drivers/STM32F1xx_HAL_Driver/Src/stm32f1xx_hal_can.c ****   CanRxMsgTypeDef* pRxMsg = NULL;
1569:Drivers/STM32F1xx_HAL_Driver/Src/stm32f1xx_hal_can.c **** 
1570:Drivers/STM32F1xx_HAL_Driver/Src/stm32f1xx_hal_can.c ****   /* Set RxMsg pointer */
1571:Drivers/STM32F1xx_HAL_Driver/Src/stm32f1xx_hal_can.c ****   if(FIFONumber == CAN_FIFO0)
 2173              		.loc 1 1571 0
 2174 0002 0C46     		mov	r4, r1
 2175 0004 09B9     		cbnz	r1, .L202
1572:Drivers/STM32F1xx_HAL_Driver/Src/stm32f1xx_hal_can.c ****   {
1573:Drivers/STM32F1xx_HAL_Driver/Src/stm32f1xx_hal_can.c ****     pRxMsg = hcan->pRxMsg;
 2176              		.loc 1 1573 0
 2177 0006 436B     		ldr	r3, [r0, #52]
 2178              	.LVL151:
 2179 0008 00E0     		b	.L203
 2180              	.LVL152:
 2181              	.L202:
1574:Drivers/STM32F1xx_HAL_Driver/Src/stm32f1xx_hal_can.c ****   }
1575:Drivers/STM32F1xx_HAL_Driver/Src/stm32f1xx_hal_can.c ****   else /* FIFONumber == CAN_FIFO1 */
1576:Drivers/STM32F1xx_HAL_Driver/Src/stm32f1xx_hal_can.c ****   {
1577:Drivers/STM32F1xx_HAL_Driver/Src/stm32f1xx_hal_can.c ****     pRxMsg = hcan->pRx1Msg;
 2182              		.loc 1 1577 0
 2183 000a 836B     		ldr	r3, [r0, #56]
 2184              	.LVL153:
 2185              	.L203:
1578:Drivers/STM32F1xx_HAL_Driver/Src/stm32f1xx_hal_can.c ****   }
1579:Drivers/STM32F1xx_HAL_Driver/Src/stm32f1xx_hal_can.c **** 
1580:Drivers/STM32F1xx_HAL_Driver/Src/stm32f1xx_hal_can.c ****   /* Get the Id */
1581:Drivers/STM32F1xx_HAL_Driver/Src/stm32f1xx_hal_can.c ****   pRxMsg->IDE = (uint8_t)0x04U & hcan->Instance->sFIFOMailBox[FIFONumber].RIR;
 2186              		.loc 1 1581 0
 2187 000c 0168     		ldr	r1, [r0]
 2188              	.LVL154:
 2189 000e 04F11B02 		add	r2, r4, #27
 2190 0012 1201     		lsls	r2, r2, #4
 2191 0014 8A58     		ldr	r2, [r1, r2]
 2192 0016 02F00402 		and	r2, r2, #4
 2193 001a 9A60     		str	r2, [r3, #8]
1582:Drivers/STM32F1xx_HAL_Driver/Src/stm32f1xx_hal_can.c ****   if (pRxMsg->IDE == CAN_ID_STD)
 2194              		.loc 1 1582 0
 2195 001c 3AB9     		cbnz	r2, .L204
1583:Drivers/STM32F1xx_HAL_Driver/Src/stm32f1xx_hal_can.c ****   {
ARM GAS  /tmp/ccRsISvi.s 			page 69


1584:Drivers/STM32F1xx_HAL_Driver/Src/stm32f1xx_hal_can.c ****     pRxMsg->StdId = 0x000007FFU & (hcan->Instance->sFIFOMailBox[FIFONumber].RIR >> 21U);
 2196              		.loc 1 1584 0
 2197 001e 0168     		ldr	r1, [r0]
 2198 0020 04F11B02 		add	r2, r4, #27
 2199 0024 1201     		lsls	r2, r2, #4
 2200 0026 8A58     		ldr	r2, [r1, r2]
 2201 0028 520D     		lsrs	r2, r2, #21
 2202 002a 1A60     		str	r2, [r3]
 2203 002c 06E0     		b	.L205
 2204              	.L204:
1585:Drivers/STM32F1xx_HAL_Driver/Src/stm32f1xx_hal_can.c ****   }
1586:Drivers/STM32F1xx_HAL_Driver/Src/stm32f1xx_hal_can.c ****   else
1587:Drivers/STM32F1xx_HAL_Driver/Src/stm32f1xx_hal_can.c ****   {
1588:Drivers/STM32F1xx_HAL_Driver/Src/stm32f1xx_hal_can.c ****     pRxMsg->ExtId = 0x1FFFFFFFU & (hcan->Instance->sFIFOMailBox[FIFONumber].RIR >> 3U);
 2205              		.loc 1 1588 0
 2206 002e 0168     		ldr	r1, [r0]
 2207 0030 04F11B02 		add	r2, r4, #27
 2208 0034 1201     		lsls	r2, r2, #4
 2209 0036 8A58     		ldr	r2, [r1, r2]
 2210 0038 D208     		lsrs	r2, r2, #3
 2211 003a 5A60     		str	r2, [r3, #4]
 2212              	.L205:
1589:Drivers/STM32F1xx_HAL_Driver/Src/stm32f1xx_hal_can.c ****   }
1590:Drivers/STM32F1xx_HAL_Driver/Src/stm32f1xx_hal_can.c ****   
1591:Drivers/STM32F1xx_HAL_Driver/Src/stm32f1xx_hal_can.c ****   pRxMsg->RTR = (uint8_t)0x02U & hcan->Instance->sFIFOMailBox[FIFONumber].RIR;
 2213              		.loc 1 1591 0
 2214 003c 0168     		ldr	r1, [r0]
 2215 003e 04F11B02 		add	r2, r4, #27
 2216 0042 1201     		lsls	r2, r2, #4
 2217 0044 8958     		ldr	r1, [r1, r2]
 2218 0046 01F00201 		and	r1, r1, #2
 2219 004a D960     		str	r1, [r3, #12]
1592:Drivers/STM32F1xx_HAL_Driver/Src/stm32f1xx_hal_can.c ****   /* Get the DLC */
1593:Drivers/STM32F1xx_HAL_Driver/Src/stm32f1xx_hal_can.c ****   pRxMsg->DLC = (uint8_t)0x0FU & hcan->Instance->sFIFOMailBox[FIFONumber].RDTR;
 2220              		.loc 1 1593 0
 2221 004c 0168     		ldr	r1, [r0]
 2222 004e 1144     		add	r1, r1, r2
 2223 0050 4968     		ldr	r1, [r1, #4]
 2224 0052 01F00F01 		and	r1, r1, #15
 2225 0056 1961     		str	r1, [r3, #16]
1594:Drivers/STM32F1xx_HAL_Driver/Src/stm32f1xx_hal_can.c ****   /* Get the FIFONumber */
1595:Drivers/STM32F1xx_HAL_Driver/Src/stm32f1xx_hal_can.c ****   pRxMsg->FIFONumber = FIFONumber;
 2226              		.loc 1 1595 0
 2227 0058 1C62     		str	r4, [r3, #32]
1596:Drivers/STM32F1xx_HAL_Driver/Src/stm32f1xx_hal_can.c ****   /* Get the FMI */
1597:Drivers/STM32F1xx_HAL_Driver/Src/stm32f1xx_hal_can.c ****   pRxMsg->FMI = (uint8_t)0xFFU & (hcan->Instance->sFIFOMailBox[FIFONumber].RDTR >> 8U);
 2228              		.loc 1 1597 0
 2229 005a 0168     		ldr	r1, [r0]
 2230 005c 0A44     		add	r2, r2, r1
 2231 005e 5268     		ldr	r2, [r2, #4]
 2232 0060 C2F30722 		ubfx	r2, r2, #8, #8
 2233 0064 DA61     		str	r2, [r3, #28]
1598:Drivers/STM32F1xx_HAL_Driver/Src/stm32f1xx_hal_can.c ****   /* Get the data field */
1599:Drivers/STM32F1xx_HAL_Driver/Src/stm32f1xx_hal_can.c ****   pRxMsg->Data[0] = (uint8_t)0xFFU & hcan->Instance->sFIFOMailBox[FIFONumber].RDLR;
 2234              		.loc 1 1599 0
 2235 0066 0168     		ldr	r1, [r0]
 2236 0068 2201     		lsls	r2, r4, #4
ARM GAS  /tmp/ccRsISvi.s 			page 70


 2237 006a 1144     		add	r1, r1, r2
 2238 006c D1F8B811 		ldr	r1, [r1, #440]
 2239 0070 1975     		strb	r1, [r3, #20]
1600:Drivers/STM32F1xx_HAL_Driver/Src/stm32f1xx_hal_can.c ****   pRxMsg->Data[1] = (uint8_t)0xFFU & (hcan->Instance->sFIFOMailBox[FIFONumber].RDLR >> 8U);
 2240              		.loc 1 1600 0
 2241 0072 0168     		ldr	r1, [r0]
 2242 0074 1144     		add	r1, r1, r2
 2243 0076 D1F8B811 		ldr	r1, [r1, #440]
 2244 007a 090A     		lsrs	r1, r1, #8
 2245 007c 5975     		strb	r1, [r3, #21]
1601:Drivers/STM32F1xx_HAL_Driver/Src/stm32f1xx_hal_can.c ****   pRxMsg->Data[2] = (uint8_t)0xFFU & (hcan->Instance->sFIFOMailBox[FIFONumber].RDLR >> 16U);
 2246              		.loc 1 1601 0
 2247 007e 0168     		ldr	r1, [r0]
 2248 0080 1144     		add	r1, r1, r2
 2249 0082 D1F8B811 		ldr	r1, [r1, #440]
 2250 0086 090C     		lsrs	r1, r1, #16
 2251 0088 9975     		strb	r1, [r3, #22]
1602:Drivers/STM32F1xx_HAL_Driver/Src/stm32f1xx_hal_can.c ****   pRxMsg->Data[3] = (uint8_t)0xFFU & (hcan->Instance->sFIFOMailBox[FIFONumber].RDLR >> 24U);
 2252              		.loc 1 1602 0
 2253 008a 0168     		ldr	r1, [r0]
 2254 008c 1144     		add	r1, r1, r2
 2255 008e D1F8B811 		ldr	r1, [r1, #440]
 2256 0092 090E     		lsrs	r1, r1, #24
 2257 0094 D975     		strb	r1, [r3, #23]
1603:Drivers/STM32F1xx_HAL_Driver/Src/stm32f1xx_hal_can.c ****   pRxMsg->Data[4] = (uint8_t)0xFFU & hcan->Instance->sFIFOMailBox[FIFONumber].RDHR;
 2258              		.loc 1 1603 0
 2259 0096 0168     		ldr	r1, [r0]
 2260 0098 1144     		add	r1, r1, r2
 2261 009a 01F5DC71 		add	r1, r1, #440
 2262 009e 4968     		ldr	r1, [r1, #4]
 2263 00a0 1976     		strb	r1, [r3, #24]
1604:Drivers/STM32F1xx_HAL_Driver/Src/stm32f1xx_hal_can.c ****   pRxMsg->Data[5] = (uint8_t)0xFFU & (hcan->Instance->sFIFOMailBox[FIFONumber].RDHR >> 8U);
 2264              		.loc 1 1604 0
 2265 00a2 0168     		ldr	r1, [r0]
 2266 00a4 1144     		add	r1, r1, r2
 2267 00a6 01F5DC71 		add	r1, r1, #440
 2268 00aa 4968     		ldr	r1, [r1, #4]
 2269 00ac 090A     		lsrs	r1, r1, #8
 2270 00ae 5976     		strb	r1, [r3, #25]
1605:Drivers/STM32F1xx_HAL_Driver/Src/stm32f1xx_hal_can.c ****   pRxMsg->Data[6] = (uint8_t)0xFFU & (hcan->Instance->sFIFOMailBox[FIFONumber].RDHR >> 16U);
 2271              		.loc 1 1605 0
 2272 00b0 0168     		ldr	r1, [r0]
 2273 00b2 1144     		add	r1, r1, r2
 2274 00b4 01F5DC71 		add	r1, r1, #440
 2275 00b8 4968     		ldr	r1, [r1, #4]
 2276 00ba 090C     		lsrs	r1, r1, #16
 2277 00bc 9976     		strb	r1, [r3, #26]
1606:Drivers/STM32F1xx_HAL_Driver/Src/stm32f1xx_hal_can.c ****   pRxMsg->Data[7] = (uint8_t)0xFFU & (hcan->Instance->sFIFOMailBox[FIFONumber].RDHR >> 24U);
 2278              		.loc 1 1606 0
 2279 00be 0168     		ldr	r1, [r0]
 2280 00c0 0A44     		add	r2, r2, r1
 2281 00c2 02F5DC72 		add	r2, r2, #440
 2282 00c6 5268     		ldr	r2, [r2, #4]
 2283 00c8 120E     		lsrs	r2, r2, #24
 2284 00ca DA76     		strb	r2, [r3, #27]
1607:Drivers/STM32F1xx_HAL_Driver/Src/stm32f1xx_hal_can.c ****   /* Release the FIFO */
1608:Drivers/STM32F1xx_HAL_Driver/Src/stm32f1xx_hal_can.c ****   /* Release FIFO0 */
ARM GAS  /tmp/ccRsISvi.s 			page 71


1609:Drivers/STM32F1xx_HAL_Driver/Src/stm32f1xx_hal_can.c ****   if (FIFONumber == CAN_FIFO0)
 2285              		.loc 1 1609 0
 2286 00cc 44B9     		cbnz	r4, .L206
1610:Drivers/STM32F1xx_HAL_Driver/Src/stm32f1xx_hal_can.c ****   {
1611:Drivers/STM32F1xx_HAL_Driver/Src/stm32f1xx_hal_can.c ****     __HAL_CAN_FIFO_RELEASE(hcan, CAN_FIFO0);
 2287              		.loc 1 1611 0
 2288 00ce 0368     		ldr	r3, [r0]
 2289              	.LVL155:
 2290 00d0 2022     		movs	r2, #32
 2291 00d2 DA60     		str	r2, [r3, #12]
1612:Drivers/STM32F1xx_HAL_Driver/Src/stm32f1xx_hal_can.c ****     
1613:Drivers/STM32F1xx_HAL_Driver/Src/stm32f1xx_hal_can.c ****     /* Disable FIFO 0 overrun and message pending Interrupt */
1614:Drivers/STM32F1xx_HAL_Driver/Src/stm32f1xx_hal_can.c ****     __HAL_CAN_DISABLE_IT(hcan, CAN_IT_FOV0 | CAN_IT_FMP0);
 2292              		.loc 1 1614 0
 2293 00d4 0268     		ldr	r2, [r0]
 2294 00d6 5369     		ldr	r3, [r2, #20]
 2295 00d8 23F00A03 		bic	r3, r3, #10
 2296 00dc 5361     		str	r3, [r2, #20]
 2297 00de 07E0     		b	.L207
 2298              	.LVL156:
